; ModuleID = 'C:/Users/zisk/Desktop/2/my_ip_hls/solution1/.autopilot/db/a.g.1.bc'
target datalayout = "e-p:64:64:64-i1:8:8-i8:8:8-i16:16:16-i32:32:32-i64:64:64-f32:32:32-f64:64:64-v64:64:64-v128:128:128-a0:0:64-s0:64:64-f80:128:128-n8:16:32:64-S128"
target triple = "x86_64-w64-mingw32"

%struct.ap_uint.14 = type { %struct.ap_int_base.13 }
%struct.ap_int_base.13 = type { %struct.ssdm_int.12 }
%struct.ssdm_int.12 = type { i32 }
%"class.hls::stream.22" = type { %struct.axiWord.21 }
%struct.axiWord.21 = type { %struct.ap_uint.14, %struct.ap_uint.0.17, %struct.ap_uint.3.20 }
%struct.ap_uint.0.17 = type { %struct.ap_int_base.1.16 }
%struct.ap_int_base.1.16 = type { %struct.ssdm_int.2.15 }
%struct.ssdm_int.2.15 = type { i4 }
%struct.ap_uint.3.20 = type { %struct.ap_int_base.4.19 }
%struct.ap_int_base.4.19 = type { %struct.ssdm_int.5.18 }
%struct.ssdm_int.5.18 = type { i1 }

@regrule3 = internal global %struct.ap_uint.14 zeroinitializer, align 4 ; [#uses=2 type=%struct.ap_uint.14*]
@regrule2 = internal global %struct.ap_uint.14 zeroinitializer, align 4 ; [#uses=2 type=%struct.ap_uint.14*]
@regrule1 = internal global %struct.ap_uint.14 zeroinitializer, align 4 ; [#uses=2 type=%struct.ap_uint.14*]
@ps2ipFifo = internal global %"class.hls::stream.22" zeroinitializer, align 4 ; [#uses=2 type=%"class.hls::stream.22"*]
@num3 = internal global %struct.ap_uint.14 zeroinitializer, align 4 ; [#uses=2 type=%struct.ap_uint.14*]
@num2 = internal global %struct.ap_uint.14 zeroinitializer, align 4 ; [#uses=2 type=%struct.ap_uint.14*]
@num1 = internal global %struct.ap_uint.14 zeroinitializer, align 4 ; [#uses=2 type=%struct.ap_uint.14*]
@my_ip_hls.str = internal unnamed_addr constant [10 x i8] c"my_ip_hls\00" ; [#uses=1 type=[10 x i8]*]
@llvm.global_ctors = appending global [0 x { i32, void ()* }] zeroinitializer ; [#uses=0 type=[0 x { i32, void ()* }]*]
@ip2psFifo = internal global %"class.hls::stream.22" zeroinitializer, align 4 ; [#uses=2 type=%"class.hls::stream.22"*]
@.str5 = private unnamed_addr constant [13 x i8] c"ap_ctrl_none\00", align 1 ; [#uses=1 type=[13 x i8]*]
@.str414 = private unnamed_addr constant [5 x i8] c"both\00", align 1 ; [#uses=1 type=[5 x i8]*]
@.str4 = private unnamed_addr constant [1 x i8] zeroinitializer, align 1 ; [#uses=1 type=[1 x i8]*]
@.str313 = private unnamed_addr constant [5 x i8] c"axis\00", align 1 ; [#uses=1 type=[5 x i8]*]
@.str28 = private unnamed_addr constant [1 x i8] zeroinitializer, align 1 ; [#uses=1 type=[1 x i8]*]
@.str212 = private unnamed_addr constant [12 x i8] c"ziskasrules\00", align 1 ; [#uses=1 type=[12 x i8]*]
@.str20 = private unnamed_addr constant [1 x i8] zeroinitializer, align 1 ; [#uses=1 type=[1 x i8]*]
@.str129 = private unnamed_addr constant [13 x i8] c"ap_ctrl_none\00", align 1 ; [#uses=1 type=[13 x i8]*]
@.str111 = private unnamed_addr constant [1 x i8] zeroinitializer, align 1 ; [#uses=1 type=[1 x i8]*]
@.str10 = private unnamed_addr constant [10 x i8] c"s_axilite\00", align 1 ; [#uses=1 type=[10 x i8]*]

; [#uses=1]
define internal fastcc void @ps2ip_fifo(%"class.hls::stream.22"* %ps2ip) nounwind uwtable {
  %tmp.1 = alloca %struct.axiWord.21, align 4     ; [#uses=4 type=%struct.axiWord.21*]
  %tmp.2 = alloca %struct.axiWord.21, align 4     ; [#uses=4 type=%struct.axiWord.21*]
  call void @llvm.dbg.value(metadata !{%"class.hls::stream.22"* %ps2ip}, i64 0, metadata !19844), !dbg !19845 ; [debug line = 4:34] [debug variable = ps2ip]
  call void (...)* @_ssdm_op_SpecPipeline(i32 1, i32 2, i32 1, i32 0, i8* getelementptr inbounds ([1 x i8]* @.str4, i64 0, i64 0)) nounwind, !dbg !19846 ; [debug line = 5:1]
  call void @llvm.dbg.value(metadata !{%"class.hls::stream.22"* %ps2ip}, i64 0, metadata !19848), !dbg !19850 ; [debug line = 112:48@14:11] [debug variable = this]
  %ps2ip.addr = getelementptr inbounds %"class.hls::stream.22"* %ps2ip, i64 0, i32 0, !dbg !19854 ; [#uses=2 type=%struct.axiWord.21*] [debug line = 113:20@14:11]
  %tmp = call i1 @"_ssdm_op_IfCanRead.Stream.%struct.axiWord.21 = type { %struct.ap_uint.14, %struct.ap_uint.0.17, %struct.ap_uint.3.20 }P"(%struct.axiWord.21* %ps2ip.addr) nounwind, !dbg !19854 ; [#uses=1 type=i1] [debug line = 113:20@14:11]
  call void @llvm.dbg.value(metadata !{i1 %tmp}, i64 0, metadata !19856), !dbg !19854 ; [debug line = 113:20@14:11] [debug variable = tmp]
  br i1 %tmp, label %1, label %._crit_edge, !dbg !19851 ; [debug line = 14:11]

; <label>:1                                       ; preds = %0
  call void @llvm.dbg.value(metadata !{%"class.hls::stream.22"* %ps2ip}, i64 0, metadata !19857), !dbg !19859 ; [debug line = 123:48@16:7] [debug variable = this]
  call void @llvm.dbg.declare(metadata !{%struct.axiWord.21* %tmp.1}, metadata !19862) nounwind, !dbg !19864 ; [debug line = 124:22@16:7] [debug variable = tmp]
  call void @"_ssdm_op_IfRead.Stream.%struct.axiWord.21 = type { %struct.ap_uint.14, %struct.ap_uint.0.17, %struct.ap_uint.3.20 }P.%struct.axiWord.21 = type { %struct.ap_uint.14, %struct.ap_uint.0.17, %struct.ap_uint.3.20 }P"(%struct.axiWord.21* %ps2ip.addr, %struct.axiWord.21* %tmp.1) nounwind, !dbg !19865 ; [debug line = 125:9@16:7]
  %tmp.1.addr = getelementptr inbounds %struct.axiWord.21* %tmp.1, i64 0, i32 0, i32 0, i32 0, i32 0, !dbg !19866 ; [#uses=1 type=i32*] [debug line = 281:5@8:8@126:9@16:7]
  %tmp.1.load = load i32* %tmp.1.addr, align 4, !dbg !19866 ; [#uses=3 type=i32] [debug line = 281:5@8:8@126:9@16:7]
  call void (...)* @_ssdm_SpecKeepArrayLoad(i32 %tmp.1.load) nounwind
  %tmp.1.addr.1 = getelementptr inbounds %struct.axiWord.21* %tmp.1, i64 0, i32 1, i32 0, i32 0, i32 0, !dbg !19871 ; [#uses=1 type=i4*] [debug line = 281:5@8:8@126:9@16:7]
  %tmp.1.load.1 = load i4* %tmp.1.addr.1, align 4, !dbg !19871 ; [#uses=3 type=i4] [debug line = 281:5@8:8@126:9@16:7]
  call void (...)* @_ssdm_SpecKeepArrayLoad(i4 %tmp.1.load.1) nounwind
  %tmp.1.addr.2 = getelementptr inbounds %struct.axiWord.21* %tmp.1, i64 0, i32 2, i32 0, i32 0, i32 0, !dbg !19873 ; [#uses=1 type=i1*] [debug line = 281:5@8:8@126:9@16:7]
  %tmp.1.load.2 = load i1* %tmp.1.addr.2, align 1, !dbg !19873 ; [#uses=3 type=i1] [debug line = 281:5@8:8@126:9@16:7]
  call void (...)* @_ssdm_SpecKeepArrayLoad(i1 %tmp.1.load.2) nounwind
  call void @llvm.dbg.declare(metadata !{%struct.axiWord.21* %tmp.2}, metadata !19875) nounwind, !dbg !19877 ; [debug line = 145:22@17:7] [debug variable = tmp]
  %tmp.2.addr = getelementptr inbounds %struct.axiWord.21* %tmp.2, i64 0, i32 0, i32 0, i32 0, i32 0, !dbg !19879 ; [#uses=1 type=i32*] [debug line = 145:31@17:7]
  call void (...)* @_ssdm_SpecKeepArrayLoad(i32 %tmp.1.load) nounwind
  store i32 %tmp.1.load, i32* %tmp.2.addr, align 4, !dbg !19879 ; [debug line = 145:31@17:7]
  %tmp.2.addr.1 = getelementptr inbounds %struct.axiWord.21* %tmp.2, i64 0, i32 1, i32 0, i32 0, i32 0, !dbg !19879 ; [#uses=1 type=i4*] [debug line = 145:31@17:7]
  call void (...)* @_ssdm_SpecKeepArrayLoad(i4 %tmp.1.load.1) nounwind
  store i4 %tmp.1.load.1, i4* %tmp.2.addr.1, align 4, !dbg !19879 ; [debug line = 145:31@17:7]
  %tmp.2.addr.2 = getelementptr inbounds %struct.axiWord.21* %tmp.2, i64 0, i32 2, i32 0, i32 0, i32 0, !dbg !19879 ; [#uses=1 type=i1*] [debug line = 145:31@17:7]
  call void (...)* @_ssdm_SpecKeepArrayLoad(i1 %tmp.1.load.2) nounwind
  store i1 %tmp.1.load.2, i1* %tmp.2.addr.2, align 1, !dbg !19879 ; [debug line = 145:31@17:7]
  call void @"_ssdm_op_IfWrite.Stream.%struct.axiWord.21 = type { %struct.ap_uint.14, %struct.ap_uint.0.17, %struct.ap_uint.3.20 }P.%struct.axiWord.21 = type { %struct.ap_uint.14, %struct.ap_uint.0.17, %struct.ap_uint.3.20 }P"(%struct.axiWord.21* getelementptr inbounds (%"class.hls::stream.22"* @ps2ipFifo, i64 0, i32 0), %struct.axiWord.21* %tmp.2) nounwind, !dbg !19880 ; [debug line = 146:9@17:7]
  br label %._crit_edge, !dbg !19881              ; [debug line = 18:6]

._crit_edge:                                      ; preds = %1, %0
  ret void, !dbg !19882                           ; [debug line = 25:2]
}

; [#uses=1]
define internal fastcc void @print() nounwind uwtable {
  ret void, !dbg !19883                           ; [debug line = 16:1]
}

; [#uses=3]
define internal fastcc void @okanonas2(%struct.ap_uint.14* byval %rule, %struct.ap_uint.14* %exodos2) nounwind uwtable {
  call void @llvm.dbg.declare(metadata !{%struct.ap_uint.14* %rule}, metadata !19885), !dbg !19886 ; [debug line = 8:23] [debug variable = rule]
  call void @llvm.dbg.value(metadata !{%struct.ap_uint.14* %exodos2}, i64 0, metadata !19887), !dbg !19888 ; [debug line = 8:36] [debug variable = exodos2]
  %exodos2.addr = getelementptr inbounds %struct.ap_uint.14* %exodos2, i64 0, i32 0, i32 0, i32 0, !dbg !19889 ; [#uses=2 type=i32*] [debug line = 1506:93@1506:109@3424:0@9:10]
  %exodos2.load = load i32* %exodos2.addr, align 4, !dbg !19889 ; [#uses=2 type=i32] [debug line = 1506:93@1506:109@3424:0@9:10]
  call void (...)* @_ssdm_SpecKeepArrayLoad(i32 %exodos2.load) nounwind
  %rule.addr = getelementptr inbounds %struct.ap_uint.14* %rule, i64 0, i32 0, i32 0, i32 0, !dbg !19889 ; [#uses=1 type=i32*] [debug line = 1506:93@1506:109@3424:0@9:10]
  %rule.load = load i32* %rule.addr, align 4, !dbg !19889 ; [#uses=2 type=i32] [debug line = 1506:93@1506:109@3424:0@9:10]
  call void (...)* @_ssdm_SpecKeepArrayLoad(i32 %rule.load) nounwind
  %tmp = add i32 %rule.load, %exodos2.load, !dbg !19896 ; [#uses=1 type=i32] [debug line = 229:89@229:104@9:10]
  call void @llvm.dbg.value(metadata !{%struct.ap_uint.14* %exodos2}, i64 0, metadata !19899), !dbg !19901 ; [debug line = 280:50@9:10] [debug variable = this]
  store i32 %tmp, i32* %exodos2.addr, align 4, !dbg !19902 ; [debug line = 281:5@9:10]
  ret void, !dbg !19903                           ; [debug line = 10:1]
}

; [#uses=3]
define internal fastcc void @okanonas(%struct.ap_uint.14* byval %rule, %struct.ap_uint.14* %exodos) nounwind uwtable {
  call void @llvm.dbg.declare(metadata !{%struct.ap_uint.14* %rule}, metadata !19904), !dbg !19905 ; [debug line = 4:22] [debug variable = rule]
  call void @llvm.dbg.value(metadata !{%struct.ap_uint.14* %exodos}, i64 0, metadata !19906), !dbg !19907 ; [debug line = 4:35] [debug variable = exodos]
  call void @llvm.dbg.value(metadata !{%struct.ap_uint.14* %exodos}, i64 0, metadata !19899), !dbg !19908 ; [debug line = 280:50@5:2] [debug variable = this]
  call void @llvm.dbg.value(metadata !{%struct.ap_uint.14* %rule}, i64 0, metadata !19911), !dbg !19912 ; [debug line = 280:84@5:2] [debug variable = op2]
  %rule.addr = getelementptr inbounds %struct.ap_uint.14* %rule, i64 0, i32 0, i32 0, i32 0, !dbg !19913 ; [#uses=1 type=i32*] [debug line = 281:5@5:2]
  %rule.load = load i32* %rule.addr, align 4, !dbg !19913 ; [#uses=2 type=i32] [debug line = 281:5@5:2]
  call void (...)* @_ssdm_SpecKeepArrayLoad(i32 %rule.load) nounwind
  %exodos.addr = getelementptr inbounds %struct.ap_uint.14* %exodos, i64 0, i32 0, i32 0, i32 0, !dbg !19913 ; [#uses=1 type=i32*] [debug line = 281:5@5:2]
  store i32 %rule.load, i32* %exodos.addr, align 4, !dbg !19913 ; [debug line = 281:5@5:2]
  ret void, !dbg !19914                           ; [debug line = 6:1]
}

; [#uses=0]
define void @my_ip_hls(%"class.hls::stream.22"* %slaveIn, %"class.hls::stream.22"* %masterOut, %struct.ap_uint.14* byval %rule1, %struct.ap_uint.14* byval %rule2, %struct.ap_uint.14* byval %rule3, %struct.ap_uint.14* byval %rule1cnt, %struct.ap_uint.14* byval %rule2cnt, %struct.ap_uint.14* byval %rule3cnt) nounwind uwtable {
codeRepl:
  call void (...)* @_ssdm_op_SpecTopModule([10 x i8]* @my_ip_hls.str) nounwind
  %0 = alloca %struct.ap_uint.14, align 4         ; [#uses=2 type=%struct.ap_uint.14*]
  %1 = alloca %struct.ap_uint.14, align 4         ; [#uses=2 type=%struct.ap_uint.14*]
  %2 = alloca %struct.ap_uint.14, align 4         ; [#uses=2 type=%struct.ap_uint.14*]
  %3 = alloca %struct.ap_uint.14, align 4         ; [#uses=2 type=%struct.ap_uint.14*]
  %4 = alloca %struct.ap_uint.14, align 4         ; [#uses=2 type=%struct.ap_uint.14*]
  %5 = alloca %struct.ap_uint.14, align 4         ; [#uses=2 type=%struct.ap_uint.14*]
  %6 = alloca %struct.ap_uint.14, align 4         ; [#uses=2 type=%struct.ap_uint.14*]
  %7 = alloca %struct.ap_uint.14, align 4         ; [#uses=2 type=%struct.ap_uint.14*]
  %8 = alloca %struct.ap_uint.14, align 4         ; [#uses=2 type=%struct.ap_uint.14*]
  call void @llvm.dbg.value(metadata !{%"class.hls::stream.22"* %slaveIn}, i64 0, metadata !19915), !dbg !19916 ; [debug line = 5:33] [debug variable = slaveIn]
  call void @llvm.dbg.value(metadata !{%"class.hls::stream.22"* %masterOut}, i64 0, metadata !19917), !dbg !19918 ; [debug line = 5:58] [debug variable = masterOut]
  call void @llvm.dbg.declare(metadata !{%struct.ap_uint.14* %rule1}, metadata !19919), !dbg !19920 ; [debug line = 5:75] [debug variable = rule1]
  call void @llvm.dbg.declare(metadata !{%struct.ap_uint.14* %rule2}, metadata !19921), !dbg !19922 ; [debug line = 5:88] [debug variable = rule2]
  call void @llvm.dbg.declare(metadata !{%struct.ap_uint.14* %rule3}, metadata !19923), !dbg !19924 ; [debug line = 5:101] [debug variable = rule3]
  call void @llvm.dbg.declare(metadata !{%struct.ap_uint.14* %rule1cnt}, metadata !19925), !dbg !19926 ; [debug line = 5:114] [debug variable = rule1cnt]
  call void @llvm.dbg.declare(metadata !{%struct.ap_uint.14* %rule2cnt}, metadata !19927), !dbg !19928 ; [debug line = 5:130] [debug variable = rule2cnt]
  call void @llvm.dbg.declare(metadata !{%struct.ap_uint.14* %rule3cnt}, metadata !19929), !dbg !19930 ; [debug line = 5:146] [debug variable = rule3cnt]
  call void (...)* @_ssdm_op_SpecInterface(%struct.ap_uint.14* %rule1, i8* getelementptr inbounds ([10 x i8]* @.str10, i64 0, i64 0), i32 0, i32 0, i8* getelementptr inbounds ([1 x i8]* @.str111, i64 0, i64 0), i32 0, i32 0, i8* getelementptr inbounds ([12 x i8]* @.str212, i64 0, i64 0), i8* getelementptr inbounds ([1 x i8]* @.str111, i64 0, i64 0), i8* getelementptr inbounds ([1 x i8]* @.str111, i64 0, i64 0), i32 0, i32 0, i32 0, i32 0, i8* getelementptr inbounds ([1 x i8]* @.str111, i64 0, i64 0), i8* getelementptr inbounds ([1 x i8]* @.str111, i64 0, i64 0)) nounwind, !dbg !19931 ; [debug line = 6:1]
  call void (...)* @_ssdm_op_SpecInterface(%struct.ap_uint.14* %rule2, i8* getelementptr inbounds ([10 x i8]* @.str10, i64 0, i64 0), i32 0, i32 0, i8* getelementptr inbounds ([1 x i8]* @.str111, i64 0, i64 0), i32 0, i32 0, i8* getelementptr inbounds ([12 x i8]* @.str212, i64 0, i64 0), i8* getelementptr inbounds ([1 x i8]* @.str111, i64 0, i64 0), i8* getelementptr inbounds ([1 x i8]* @.str111, i64 0, i64 0), i32 0, i32 0, i32 0, i32 0, i8* getelementptr inbounds ([1 x i8]* @.str111, i64 0, i64 0), i8* getelementptr inbounds ([1 x i8]* @.str111, i64 0, i64 0)) nounwind, !dbg !19933 ; [debug line = 7:1]
  call void (...)* @_ssdm_op_SpecInterface(%struct.ap_uint.14* %rule3, i8* getelementptr inbounds ([10 x i8]* @.str10, i64 0, i64 0), i32 0, i32 0, i8* getelementptr inbounds ([1 x i8]* @.str111, i64 0, i64 0), i32 0, i32 0, i8* getelementptr inbounds ([12 x i8]* @.str212, i64 0, i64 0), i8* getelementptr inbounds ([1 x i8]* @.str111, i64 0, i64 0), i8* getelementptr inbounds ([1 x i8]* @.str111, i64 0, i64 0), i32 0, i32 0, i32 0, i32 0, i8* getelementptr inbounds ([1 x i8]* @.str111, i64 0, i64 0), i8* getelementptr inbounds ([1 x i8]* @.str111, i64 0, i64 0)) nounwind, !dbg !19934 ; [debug line = 8:1]
  call void (...)* @_ssdm_op_SpecInterface(%struct.ap_uint.14* %rule1cnt, i8* getelementptr inbounds ([10 x i8]* @.str10, i64 0, i64 0), i32 0, i32 0, i8* getelementptr inbounds ([1 x i8]* @.str111, i64 0, i64 0), i32 0, i32 0, i8* getelementptr inbounds ([12 x i8]* @.str212, i64 0, i64 0), i8* getelementptr inbounds ([1 x i8]* @.str111, i64 0, i64 0), i8* getelementptr inbounds ([1 x i8]* @.str111, i64 0, i64 0), i32 0, i32 0, i32 0, i32 0, i8* getelementptr inbounds ([1 x i8]* @.str111, i64 0, i64 0), i8* getelementptr inbounds ([1 x i8]* @.str111, i64 0, i64 0)) nounwind, !dbg !19935 ; [debug line = 9:1]
  call void (...)* @_ssdm_op_SpecInterface(%struct.ap_uint.14* %rule2cnt, i8* getelementptr inbounds ([10 x i8]* @.str10, i64 0, i64 0), i32 0, i32 0, i8* getelementptr inbounds ([1 x i8]* @.str111, i64 0, i64 0), i32 0, i32 0, i8* getelementptr inbounds ([12 x i8]* @.str212, i64 0, i64 0), i8* getelementptr inbounds ([1 x i8]* @.str111, i64 0, i64 0), i8* getelementptr inbounds ([1 x i8]* @.str111, i64 0, i64 0), i32 0, i32 0, i32 0, i32 0, i8* getelementptr inbounds ([1 x i8]* @.str111, i64 0, i64 0), i8* getelementptr inbounds ([1 x i8]* @.str111, i64 0, i64 0)) nounwind, !dbg !19936 ; [debug line = 10:1]
  call void (...)* @_ssdm_op_SpecInterface(%struct.ap_uint.14* %rule3cnt, i8* getelementptr inbounds ([10 x i8]* @.str10, i64 0, i64 0), i32 0, i32 0, i8* getelementptr inbounds ([1 x i8]* @.str111, i64 0, i64 0), i32 0, i32 0, i8* getelementptr inbounds ([12 x i8]* @.str212, i64 0, i64 0), i8* getelementptr inbounds ([1 x i8]* @.str111, i64 0, i64 0), i8* getelementptr inbounds ([1 x i8]* @.str111, i64 0, i64 0), i32 0, i32 0, i32 0, i32 0, i8* getelementptr inbounds ([1 x i8]* @.str111, i64 0, i64 0), i8* getelementptr inbounds ([1 x i8]* @.str111, i64 0, i64 0)) nounwind, !dbg !19937 ; [debug line = 11:1]
  call void (...)* @_ssdm_op_SpecDataflowPipeline(i32 -1, i8* getelementptr inbounds ([1 x i8]* @.str111, i64 0, i64 0)) nounwind, !dbg !19938 ; [debug line = 15:1]
  call void (...)* @_ssdm_op_SpecInterface(%"class.hls::stream.22"* %slaveIn, i8* getelementptr inbounds ([5 x i8]* @.str313, i64 0, i64 0), i32 1, i32 1, i8* getelementptr inbounds ([5 x i8]* @.str414, i64 0, i64 0), i32 0, i32 0, i8* getelementptr inbounds ([1 x i8]* @.str111, i64 0, i64 0), i8* getelementptr inbounds ([1 x i8]* @.str111, i64 0, i64 0), i8* getelementptr inbounds ([1 x i8]* @.str111, i64 0, i64 0), i32 0, i32 0, i32 0, i32 0, i8* getelementptr inbounds ([1 x i8]* @.str111, i64 0, i64 0), i8* getelementptr inbounds ([1 x i8]* @.str111, i64 0, i64 0)) nounwind, !dbg !19939 ; [debug line = 16:1]
  call void (...)* @_ssdm_op_SpecInterface(%"class.hls::stream.22"* %masterOut, i8* getelementptr inbounds ([5 x i8]* @.str313, i64 0, i64 0), i32 1, i32 1, i8* getelementptr inbounds ([5 x i8]* @.str414, i64 0, i64 0), i32 0, i32 0, i8* getelementptr inbounds ([1 x i8]* @.str111, i64 0, i64 0), i8* getelementptr inbounds ([1 x i8]* @.str111, i64 0, i64 0), i8* getelementptr inbounds ([1 x i8]* @.str111, i64 0, i64 0), i32 0, i32 0, i32 0, i32 0, i8* getelementptr inbounds ([1 x i8]* @.str111, i64 0, i64 0), i8* getelementptr inbounds ([1 x i8]* @.str111, i64 0, i64 0)) nounwind, !dbg !19940 ; [debug line = 17:1]
  call void (...)* @_ssdm_op_SpecInterface(i32 0, i8* getelementptr inbounds ([13 x i8]* @.str5, i64 0, i64 0), i32 0, i32 0, i8* getelementptr inbounds ([1 x i8]* @.str111, i64 0, i64 0), i32 0, i32 0, i8* getelementptr inbounds ([1 x i8]* @.str111, i64 0, i64 0), i8* getelementptr inbounds ([1 x i8]* @.str111, i64 0, i64 0), i8* getelementptr inbounds ([1 x i8]* @.str111, i64 0, i64 0), i32 0, i32 0, i32 0, i32 0, i8* getelementptr inbounds ([1 x i8]* @.str111, i64 0, i64 0), i8* getelementptr inbounds ([1 x i8]* @.str111, i64 0, i64 0)) nounwind, !dbg !19941 ; [debug line = 18:1]
  call void (...)* @_ssdm_SpecStream(%"class.hls::stream.22"* @ps2ipFifo, i32 1, i32 64, i8* getelementptr inbounds ([1 x i8]* @.str111, i64 0, i64 0)) nounwind, !dbg !19942 ; [debug line = 22:1]
  call void (...)* @_ssdm_SpecStream(%"class.hls::stream.22"* @ip2psFifo, i32 1, i32 64, i8* getelementptr inbounds ([1 x i8]* @.str111, i64 0, i64 0)) nounwind, !dbg !19943 ; [debug line = 24:1]
  %.addr = getelementptr inbounds %struct.ap_uint.14* %0, i64 0, i32 0, i32 0, i32 0, !dbg !19944 ; [#uses=1 type=i32*] [debug line = 35:2]
  %rule1.addr = getelementptr inbounds %struct.ap_uint.14* %rule1, i64 0, i32 0, i32 0, i32 0, !dbg !19944 ; [#uses=1 type=i32*] [debug line = 35:2]
  %rule1.load = load i32* %rule1.addr, align 4, !dbg !19944 ; [#uses=2 type=i32] [debug line = 35:2]
  call void (...)* @_ssdm_SpecKeepArrayLoad(i32 %rule1.load) nounwind
  store i32 %rule1.load, i32* %.addr, align 4, !dbg !19944 ; [debug line = 35:2]
  call fastcc void @okanonas(%struct.ap_uint.14* byval %0, %struct.ap_uint.14* @regrule1), !dbg !19944 ; [debug line = 35:2]
  %.addr.1 = getelementptr inbounds %struct.ap_uint.14* %1, i64 0, i32 0, i32 0, i32 0, !dbg !19945 ; [#uses=1 type=i32*] [debug line = 36:2]
  %rule2.addr = getelementptr inbounds %struct.ap_uint.14* %rule2, i64 0, i32 0, i32 0, i32 0, !dbg !19945 ; [#uses=1 type=i32*] [debug line = 36:2]
  %rule2.load = load i32* %rule2.addr, align 4, !dbg !19945 ; [#uses=2 type=i32] [debug line = 36:2]
  call void (...)* @_ssdm_SpecKeepArrayLoad(i32 %rule2.load) nounwind
  store i32 %rule2.load, i32* %.addr.1, align 4, !dbg !19945 ; [debug line = 36:2]
  call fastcc void @okanonas(%struct.ap_uint.14* byval %1, %struct.ap_uint.14* @regrule2), !dbg !19945 ; [debug line = 36:2]
  %.addr.2 = getelementptr inbounds %struct.ap_uint.14* %2, i64 0, i32 0, i32 0, i32 0, !dbg !19946 ; [#uses=1 type=i32*] [debug line = 37:2]
  %rule3.addr = getelementptr inbounds %struct.ap_uint.14* %rule3, i64 0, i32 0, i32 0, i32 0, !dbg !19946 ; [#uses=1 type=i32*] [debug line = 37:2]
  %rule3.load = load i32* %rule3.addr, align 4, !dbg !19946 ; [#uses=2 type=i32] [debug line = 37:2]
  call void (...)* @_ssdm_SpecKeepArrayLoad(i32 %rule3.load) nounwind
  store i32 %rule3.load, i32* %.addr.2, align 4, !dbg !19946 ; [debug line = 37:2]
  call fastcc void @okanonas(%struct.ap_uint.14* byval %2, %struct.ap_uint.14* @regrule3), !dbg !19946 ; [debug line = 37:2]
  call fastcc void @ps2ip_fifo(%"class.hls::stream.22"* %slaveIn), !dbg !19947 ; [debug line = 40:2]
  %.addr.3 = getelementptr inbounds %struct.ap_uint.14* %3, i64 0, i32 0, i32 0, i32 0, !dbg !19948 ; [#uses=1 type=i32*] [debug line = 42:2]
  %regrule1.load = load i32* getelementptr inbounds (%struct.ap_uint.14* @regrule1, i64 0, i32 0, i32 0, i32 0), align 4, !dbg !19948 ; [#uses=2 type=i32] [debug line = 42:2]
  call void (...)* @_ssdm_SpecKeepArrayLoad(i32 %regrule1.load) nounwind
  store i32 %regrule1.load, i32* %.addr.3, align 4, !dbg !19948 ; [debug line = 42:2]
  %.addr.4 = getelementptr inbounds %struct.ap_uint.14* %4, i64 0, i32 0, i32 0, i32 0, !dbg !19948 ; [#uses=1 type=i32*] [debug line = 42:2]
  %regrule2.load = load i32* getelementptr inbounds (%struct.ap_uint.14* @regrule2, i64 0, i32 0, i32 0, i32 0), align 4, !dbg !19948 ; [#uses=2 type=i32] [debug line = 42:2]
  call void (...)* @_ssdm_SpecKeepArrayLoad(i32 %regrule2.load) nounwind
  store i32 %regrule2.load, i32* %.addr.4, align 4, !dbg !19948 ; [debug line = 42:2]
  %.addr.5 = getelementptr inbounds %struct.ap_uint.14* %5, i64 0, i32 0, i32 0, i32 0, !dbg !19948 ; [#uses=1 type=i32*] [debug line = 42:2]
  %regrule3.load = load i32* getelementptr inbounds (%struct.ap_uint.14* @regrule3, i64 0, i32 0, i32 0, i32 0), align 4, !dbg !19948 ; [#uses=2 type=i32] [debug line = 42:2]
  call void (...)* @_ssdm_SpecKeepArrayLoad(i32 %regrule3.load) nounwind
  store i32 %regrule3.load, i32* %.addr.5, align 4, !dbg !19948 ; [debug line = 42:2]
  call fastcc void @core(%struct.ap_uint.14* byval %3, %struct.ap_uint.14* byval %4, %struct.ap_uint.14* byval %5, %struct.ap_uint.14* %rule1cnt, %struct.ap_uint.14* %rule2cnt, %struct.ap_uint.14* %rule3cnt), !dbg !19948 ; [debug line = 42:2]
  %.addr.6 = getelementptr inbounds %struct.ap_uint.14* %6, i64 0, i32 0, i32 0, i32 0, !dbg !19949 ; [#uses=1 type=i32*] [debug line = 44:2]
  %rule1cnt.addr = getelementptr inbounds %struct.ap_uint.14* %rule1cnt, i64 0, i32 0, i32 0, i32 0, !dbg !19949 ; [#uses=1 type=i32*] [debug line = 44:2]
  %rule1cnt.load = load i32* %rule1cnt.addr, align 4, !dbg !19949 ; [#uses=2 type=i32] [debug line = 44:2]
  call void (...)* @_ssdm_SpecKeepArrayLoad(i32 %rule1cnt.load) nounwind
  store i32 %rule1cnt.load, i32* %.addr.6, align 4, !dbg !19949 ; [debug line = 44:2]
  call fastcc void @okanonas2(%struct.ap_uint.14* byval %6, %struct.ap_uint.14* @num1), !dbg !19949 ; [debug line = 44:2]
  %.addr.7 = getelementptr inbounds %struct.ap_uint.14* %7, i64 0, i32 0, i32 0, i32 0, !dbg !19950 ; [#uses=1 type=i32*] [debug line = 45:2]
  %rule2cnt.addr = getelementptr inbounds %struct.ap_uint.14* %rule2cnt, i64 0, i32 0, i32 0, i32 0, !dbg !19950 ; [#uses=1 type=i32*] [debug line = 45:2]
  %rule2cnt.load = load i32* %rule2cnt.addr, align 4, !dbg !19950 ; [#uses=2 type=i32] [debug line = 45:2]
  call void (...)* @_ssdm_SpecKeepArrayLoad(i32 %rule2cnt.load) nounwind
  store i32 %rule2cnt.load, i32* %.addr.7, align 4, !dbg !19950 ; [debug line = 45:2]
  call fastcc void @okanonas2(%struct.ap_uint.14* byval %7, %struct.ap_uint.14* @num2), !dbg !19950 ; [debug line = 45:2]
  %.addr.8 = getelementptr inbounds %struct.ap_uint.14* %8, i64 0, i32 0, i32 0, i32 0, !dbg !19951 ; [#uses=1 type=i32*] [debug line = 46:2]
  %rule3cnt.addr = getelementptr inbounds %struct.ap_uint.14* %rule3cnt, i64 0, i32 0, i32 0, i32 0, !dbg !19951 ; [#uses=1 type=i32*] [debug line = 46:2]
  %rule3cnt.load = load i32* %rule3cnt.addr, align 4, !dbg !19951 ; [#uses=2 type=i32] [debug line = 46:2]
  call void (...)* @_ssdm_SpecKeepArrayLoad(i32 %rule3cnt.load) nounwind
  store i32 %rule3cnt.load, i32* %.addr.8, align 4, !dbg !19951 ; [debug line = 46:2]
  call fastcc void @okanonas2(%struct.ap_uint.14* byval %8, %struct.ap_uint.14* @num3), !dbg !19951 ; [debug line = 46:2]
  %num1.load = load i32* getelementptr inbounds (%struct.ap_uint.14* @num1, i64 0, i32 0, i32 0, i32 0), align 4, !dbg !19952 ; [#uses=1 type=i32] [debug line = 48:2]
  call void (...)* @_ssdm_SpecKeepArrayLoad(i32 %num1.load) nounwind
  %num2.load = load i32* getelementptr inbounds (%struct.ap_uint.14* @num2, i64 0, i32 0, i32 0, i32 0), align 4, !dbg !19952 ; [#uses=1 type=i32] [debug line = 48:2]
  call void (...)* @_ssdm_SpecKeepArrayLoad(i32 %num2.load) nounwind
  %num3.load = load i32* getelementptr inbounds (%struct.ap_uint.14* @num3, i64 0, i32 0, i32 0, i32 0), align 4, !dbg !19952 ; [#uses=1 type=i32] [debug line = 48:2]
  call void (...)* @_ssdm_SpecKeepArrayLoad(i32 %num3.load) nounwind
  call fastcc void @print(), !dbg !19952          ; [debug line = 48:2]
  call fastcc void @ip2ps_fifo(%"class.hls::stream.22"* %masterOut), !dbg !19953 ; [debug line = 51:2]
  ret void, !dbg !19954                           ; [debug line = 54:2]
}

; [#uses=21]
declare void @llvm.dbg.value(metadata, i64, metadata) nounwind readnone

; [#uses=17]
declare void @llvm.dbg.declare(metadata, metadata) nounwind readnone

; [#uses=1]
define internal fastcc void @ip2ps_fifo(%"class.hls::stream.22"* %ip2ps) nounwind uwtable {
  %tmp.3 = alloca %struct.axiWord.21, align 4     ; [#uses=4 type=%struct.axiWord.21*]
  %tmp.4 = alloca %struct.axiWord.21, align 4     ; [#uses=4 type=%struct.axiWord.21*]
  call void @llvm.dbg.value(metadata !{%"class.hls::stream.22"* %ip2ps}, i64 0, metadata !19955), !dbg !19956 ; [debug line = 4:64] [debug variable = ip2ps]
  call void (...)* @_ssdm_op_SpecPipeline(i32 1, i32 2, i32 1, i32 0, i8* getelementptr inbounds ([1 x i8]* @.str20, i64 0, i64 0)) nounwind, !dbg !19957 ; [debug line = 5:1]
  %tmp = call i1 @"_ssdm_op_IfCanRead.Stream.%struct.axiWord.21 = type { %struct.ap_uint.14, %struct.ap_uint.0.17, %struct.ap_uint.3.20 }P"(%struct.axiWord.21* getelementptr inbounds (%"class.hls::stream.22"* @ip2psFifo, i64 0, i32 0)) nounwind, !dbg !19959 ; [#uses=1 type=i1] [debug line = 113:20@14:11]
  call void @llvm.dbg.value(metadata !{i1 %tmp}, i64 0, metadata !19856), !dbg !19959 ; [debug line = 113:20@14:11] [debug variable = tmp]
  br i1 %tmp, label %1, label %._crit_edge, !dbg !19960 ; [debug line = 14:11]

; <label>:1                                       ; preds = %0
  call void @llvm.dbg.declare(metadata !{%struct.axiWord.21* %tmp.3}, metadata !19862) nounwind, !dbg !19963 ; [debug line = 124:22@16:7] [debug variable = tmp]
  call void @"_ssdm_op_IfRead.Stream.%struct.axiWord.21 = type { %struct.ap_uint.14, %struct.ap_uint.0.17, %struct.ap_uint.3.20 }P.%struct.axiWord.21 = type { %struct.ap_uint.14, %struct.ap_uint.0.17, %struct.ap_uint.3.20 }P"(%struct.axiWord.21* getelementptr inbounds (%"class.hls::stream.22"* @ip2psFifo, i64 0, i32 0), %struct.axiWord.21* %tmp.3) nounwind, !dbg !19966 ; [debug line = 125:9@16:7]
  %tmp.3.addr = getelementptr inbounds %struct.axiWord.21* %tmp.3, i64 0, i32 0, i32 0, i32 0, i32 0, !dbg !19967 ; [#uses=1 type=i32*] [debug line = 281:5@8:8@126:9@16:7]
  %tmp.3.load = load i32* %tmp.3.addr, align 4, !dbg !19967 ; [#uses=3 type=i32] [debug line = 281:5@8:8@126:9@16:7]
  call void (...)* @_ssdm_SpecKeepArrayLoad(i32 %tmp.3.load) nounwind
  %tmp.3.addr.1 = getelementptr inbounds %struct.axiWord.21* %tmp.3, i64 0, i32 1, i32 0, i32 0, i32 0, !dbg !19970 ; [#uses=1 type=i4*] [debug line = 281:5@8:8@126:9@16:7]
  %tmp.3.load.1 = load i4* %tmp.3.addr.1, align 4, !dbg !19970 ; [#uses=3 type=i4] [debug line = 281:5@8:8@126:9@16:7]
  call void (...)* @_ssdm_SpecKeepArrayLoad(i4 %tmp.3.load.1) nounwind
  %tmp.3.addr.2 = getelementptr inbounds %struct.axiWord.21* %tmp.3, i64 0, i32 2, i32 0, i32 0, i32 0, !dbg !19971 ; [#uses=1 type=i1*] [debug line = 281:5@8:8@126:9@16:7]
  %tmp.3.load.2 = load i1* %tmp.3.addr.2, align 1, !dbg !19971 ; [#uses=3 type=i1] [debug line = 281:5@8:8@126:9@16:7]
  call void (...)* @_ssdm_SpecKeepArrayLoad(i1 %tmp.3.load.2) nounwind
  call void @llvm.dbg.value(metadata !{%"class.hls::stream.22"* %ip2ps}, i64 0, metadata !19972), !dbg !19973 ; [debug line = 144:48@17:7] [debug variable = this]
  call void @llvm.dbg.declare(metadata !{%struct.axiWord.21* %tmp.4}, metadata !19875) nounwind, !dbg !19975 ; [debug line = 145:22@17:7] [debug variable = tmp]
  %tmp.4.addr = getelementptr inbounds %struct.axiWord.21* %tmp.4, i64 0, i32 0, i32 0, i32 0, i32 0, !dbg !19976 ; [#uses=1 type=i32*] [debug line = 145:31@17:7]
  call void (...)* @_ssdm_SpecKeepArrayLoad(i32 %tmp.3.load) nounwind
  store i32 %tmp.3.load, i32* %tmp.4.addr, align 4, !dbg !19976 ; [debug line = 145:31@17:7]
  %tmp.4.addr.1 = getelementptr inbounds %struct.axiWord.21* %tmp.4, i64 0, i32 1, i32 0, i32 0, i32 0, !dbg !19976 ; [#uses=1 type=i4*] [debug line = 145:31@17:7]
  call void (...)* @_ssdm_SpecKeepArrayLoad(i4 %tmp.3.load.1) nounwind
  store i4 %tmp.3.load.1, i4* %tmp.4.addr.1, align 4, !dbg !19976 ; [debug line = 145:31@17:7]
  %tmp.4.addr.2 = getelementptr inbounds %struct.axiWord.21* %tmp.4, i64 0, i32 2, i32 0, i32 0, i32 0, !dbg !19976 ; [#uses=1 type=i1*] [debug line = 145:31@17:7]
  call void (...)* @_ssdm_SpecKeepArrayLoad(i1 %tmp.3.load.2) nounwind
  store i1 %tmp.3.load.2, i1* %tmp.4.addr.2, align 1, !dbg !19976 ; [debug line = 145:31@17:7]
  %ip2ps.addr = getelementptr inbounds %"class.hls::stream.22"* %ip2ps, i64 0, i32 0, !dbg !19977 ; [#uses=1 type=%struct.axiWord.21*] [debug line = 146:9@17:7]
  call void @"_ssdm_op_IfWrite.Stream.%struct.axiWord.21 = type { %struct.ap_uint.14, %struct.ap_uint.0.17, %struct.ap_uint.3.20 }P.%struct.axiWord.21 = type { %struct.ap_uint.14, %struct.ap_uint.0.17, %struct.ap_uint.3.20 }P"(%struct.axiWord.21* %ip2ps.addr, %struct.axiWord.21* %tmp.4) nounwind, !dbg !19977 ; [debug line = 146:9@17:7]
  br label %._crit_edge, !dbg !19978              ; [debug line = 18:6]

._crit_edge:                                      ; preds = %1, %0
  ret void, !dbg !19979                           ; [debug line = 25:2]
}

; [#uses=1]
define internal fastcc void @core(%struct.ap_uint.14* byval %regrule1, %struct.ap_uint.14* byval %regrule2, %struct.ap_uint.14* byval %regrule3, %struct.ap_uint.14* %regrule1cnt, %struct.ap_uint.14* %regrule2cnt, %struct.ap_uint.14* %regrule3cnt) nounwind uwtable {
codeRepl:
  %tmp.5 = alloca %struct.axiWord.21, align 4     ; [#uses=4 type=%struct.axiWord.21*]
  %tmp.12 = alloca %struct.axiWord.21, align 4    ; [#uses=4 type=%struct.axiWord.21*]
  call void @llvm.dbg.declare(metadata !{%struct.ap_uint.14* %regrule1}, metadata !19980), !dbg !19981 ; [debug line = 8:78] [debug variable = regrule1]
  call void @llvm.dbg.declare(metadata !{%struct.ap_uint.14* %regrule2}, metadata !19982), !dbg !19983 ; [debug line = 8:94] [debug variable = regrule2]
  call void @llvm.dbg.declare(metadata !{%struct.ap_uint.14* %regrule3}, metadata !19984), !dbg !19985 ; [debug line = 8:110] [debug variable = regrule3]
  call void @llvm.dbg.value(metadata !{%struct.ap_uint.14* %regrule1cnt}, i64 0, metadata !19986), !dbg !19987 ; [debug line = 8:127] [debug variable = regrule1cnt]
  call void @llvm.dbg.value(metadata !{%struct.ap_uint.14* %regrule2cnt}, i64 0, metadata !19988), !dbg !19989 ; [debug line = 8:147] [debug variable = regrule2cnt]
  call void @llvm.dbg.value(metadata !{%struct.ap_uint.14* %regrule3cnt}, i64 0, metadata !19990), !dbg !19991 ; [debug line = 8:167] [debug variable = regrule3cnt]
  call void (...)* @_ssdm_op_SpecPipeline(i32 1, i32 2, i32 1, i32 0, i8* getelementptr inbounds ([1 x i8]* @.str28, i64 0, i64 0)) nounwind, !dbg !19992 ; [debug line = 9:1]
  call void (...)* @_ssdm_op_SpecInterface(i32 0, i8* getelementptr inbounds ([13 x i8]* @.str129, i64 0, i64 0), i32 0, i32 0, i8* getelementptr inbounds ([1 x i8]* @.str28, i64 0, i64 0), i32 0, i32 0, i8* getelementptr inbounds ([1 x i8]* @.str28, i64 0, i64 0), i8* getelementptr inbounds ([1 x i8]* @.str28, i64 0, i64 0), i8* getelementptr inbounds ([1 x i8]* @.str28, i64 0, i64 0), i32 0, i32 0, i32 0, i32 0, i8* getelementptr inbounds ([1 x i8]* @.str28, i64 0, i64 0), i8* getelementptr inbounds ([1 x i8]* @.str28, i64 0, i64 0)) nounwind, !dbg !19994 ; [debug line = 10:1]
  %tmp = call i1 @"_ssdm_op_IfCanRead.Stream.%struct.axiWord.21 = type { %struct.ap_uint.14, %struct.ap_uint.0.17, %struct.ap_uint.3.20 }P"(%struct.axiWord.21* getelementptr inbounds (%"class.hls::stream.22"* @ps2ipFifo, i64 0, i32 0)) nounwind, !dbg !19995 ; [#uses=1 type=i1] [debug line = 113:20@21:11]
  call void @llvm.dbg.value(metadata !{i1 %tmp}, i64 0, metadata !19856), !dbg !19995 ; [debug line = 113:20@21:11] [debug variable = tmp]
  br i1 %tmp, label %0, label %._crit_edge1, !dbg !19996 ; [debug line = 21:11]

; <label>:0                                       ; preds = %codeRepl
  call void @llvm.dbg.declare(metadata !{%struct.axiWord.21* %tmp.5}, metadata !19862) nounwind, !dbg !19999 ; [debug line = 124:22@22:7] [debug variable = tmp]
  call void @"_ssdm_op_IfRead.Stream.%struct.axiWord.21 = type { %struct.ap_uint.14, %struct.ap_uint.0.17, %struct.ap_uint.3.20 }P.%struct.axiWord.21 = type { %struct.ap_uint.14, %struct.ap_uint.0.17, %struct.ap_uint.3.20 }P"(%struct.axiWord.21* getelementptr inbounds (%"class.hls::stream.22"* @ps2ipFifo, i64 0, i32 0), %struct.axiWord.21* %tmp.5) nounwind, !dbg !20002 ; [debug line = 125:9@22:7]
  %tmp.5.addr = getelementptr inbounds %struct.axiWord.21* %tmp.5, i64 0, i32 0, i32 0, i32 0, i32 0, !dbg !20003 ; [#uses=1 type=i32*] [debug line = 281:5@8:8@126:9@22:7]
  %tmp.5.load = load i32* %tmp.5.addr, align 4, !dbg !20003 ; [#uses=9 type=i32] [debug line = 281:5@8:8@126:9@22:7]
  call void (...)* @_ssdm_SpecKeepArrayLoad(i32 %tmp.5.load) nounwind
  %tmp.5.addr.1 = getelementptr inbounds %struct.axiWord.21* %tmp.5, i64 0, i32 1, i32 0, i32 0, i32 0, !dbg !20006 ; [#uses=1 type=i4*] [debug line = 281:5@8:8@126:9@22:7]
  %tmp.5.load.1 = load i4* %tmp.5.addr.1, align 4, !dbg !20006 ; [#uses=3 type=i4] [debug line = 281:5@8:8@126:9@22:7]
  call void (...)* @_ssdm_SpecKeepArrayLoad(i4 %tmp.5.load.1) nounwind
  %tmp.5.addr.2 = getelementptr inbounds %struct.axiWord.21* %tmp.5, i64 0, i32 2, i32 0, i32 0, i32 0, !dbg !20007 ; [#uses=1 type=i1*] [debug line = 281:5@8:8@126:9@22:7]
  %tmp.5.load.2 = load i1* %tmp.5.addr.2, align 1, !dbg !20007 ; [#uses=3 type=i1] [debug line = 281:5@8:8@126:9@22:7]
  call void (...)* @_ssdm_SpecKeepArrayLoad(i1 %tmp.5.load.2) nounwind
  call void (...)* @_ssdm_SpecKeepArrayLoad(i32 %tmp.5.load) nounwind
  %regrule1.addr = getelementptr inbounds %struct.ap_uint.14* %regrule1, i64 0, i32 0, i32 0, i32 0, !dbg !20008 ; [#uses=1 type=i32*] [debug line = 2034:5@26:10]
  %regrule1.load = load i32* %regrule1.addr, align 4, !dbg !20008 ; [#uses=2 type=i32] [debug line = 2034:5@26:10]
  call void (...)* @_ssdm_SpecKeepArrayLoad(i32 %regrule1.load) nounwind
  %tmp.6 = icmp eq i32 %tmp.5.load, %regrule1.load, !dbg !20008 ; [#uses=1 type=i1] [debug line = 2034:5@26:10]
  br i1 %tmp.6, label %1, label %2, !dbg !20010   ; [debug line = 26:10]

; <label>:1                                       ; preds = %0
  %regrule1cnt.addr = getelementptr inbounds %struct.ap_uint.14* %regrule1cnt, i64 0, i32 0, i32 0, i32 0, !dbg !20011 ; [#uses=2 type=i32*] [debug line = 1908:26@27:8]
  %t.V = load i32* %regrule1cnt.addr, align 4, !dbg !20011 ; [#uses=3 type=i32] [debug line = 1908:26@27:8]
  call void (...)* @_ssdm_SpecKeepArrayLoad(i32 %t.V) nounwind
  call void @llvm.dbg.value(metadata !{i32 %t.V}, i64 0, metadata !20015), !dbg !20011 ; [debug line = 1908:26@27:8] [debug variable = t.V]
  call void (...)* @_ssdm_SpecKeepArrayLoad(i32 %t.V) nounwind
  %tmp.7 = add i32 %t.V, 1, !dbg !20021           ; [#uses=1 type=i32] [debug line = 1879:145@1909:5@27:8]
  store i32 %tmp.7, i32* %regrule1cnt.addr, align 4, !dbg !20021 ; [debug line = 1879:145@1909:5@27:8]
  br label %9, !dbg !20024                        ; [debug line = 28:7]

; <label>:2                                       ; preds = %0
  call void (...)* @_ssdm_SpecKeepArrayLoad(i32 %tmp.5.load) nounwind
  %regrule2.addr = getelementptr inbounds %struct.ap_uint.14* %regrule2, i64 0, i32 0, i32 0, i32 0, !dbg !20025 ; [#uses=1 type=i32*] [debug line = 2034:5@29:15]
  %regrule2.load = load i32* %regrule2.addr, align 4, !dbg !20025 ; [#uses=2 type=i32] [debug line = 2034:5@29:15]
  call void (...)* @_ssdm_SpecKeepArrayLoad(i32 %regrule2.load) nounwind
  %tmp.8 = icmp eq i32 %tmp.5.load, %regrule2.load, !dbg !20025 ; [#uses=1 type=i1] [debug line = 2034:5@29:15]
  br i1 %tmp.8, label %3, label %4, !dbg !20026   ; [debug line = 29:15]

; <label>:3                                       ; preds = %2
  %regrule2cnt.addr = getelementptr inbounds %struct.ap_uint.14* %regrule2cnt, i64 0, i32 0, i32 0, i32 0, !dbg !20027 ; [#uses=2 type=i32*] [debug line = 1908:26@30:8]
  %t.V.1 = load i32* %regrule2cnt.addr, align 4, !dbg !20027 ; [#uses=3 type=i32] [debug line = 1908:26@30:8]
  call void (...)* @_ssdm_SpecKeepArrayLoad(i32 %t.V.1) nounwind
  call void @llvm.dbg.value(metadata !{i32 %t.V.1}, i64 0, metadata !20015), !dbg !20027 ; [debug line = 1908:26@30:8] [debug variable = t.V]
  call void (...)* @_ssdm_SpecKeepArrayLoad(i32 %t.V.1) nounwind
  %tmp.9 = add i32 %t.V.1, 1, !dbg !20030         ; [#uses=1 type=i32] [debug line = 1879:145@1909:5@30:8]
  store i32 %tmp.9, i32* %regrule2cnt.addr, align 4, !dbg !20030 ; [debug line = 1879:145@1909:5@30:8]
  br label %8, !dbg !20032                        ; [debug line = 31:7]

; <label>:4                                       ; preds = %2
  call void (...)* @_ssdm_SpecKeepArrayLoad(i32 %tmp.5.load) nounwind
  %regrule3.addr = getelementptr inbounds %struct.ap_uint.14* %regrule3, i64 0, i32 0, i32 0, i32 0, !dbg !20033 ; [#uses=1 type=i32*] [debug line = 2034:5@32:15]
  %regrule3.load = load i32* %regrule3.addr, align 4, !dbg !20033 ; [#uses=2 type=i32] [debug line = 2034:5@32:15]
  call void (...)* @_ssdm_SpecKeepArrayLoad(i32 %regrule3.load) nounwind
  %tmp.10 = icmp eq i32 %tmp.5.load, %regrule3.load, !dbg !20033 ; [#uses=1 type=i1] [debug line = 2034:5@32:15]
  br i1 %tmp.10, label %5, label %6, !dbg !20034  ; [debug line = 32:15]

; <label>:5                                       ; preds = %4
  %regrule3cnt.addr = getelementptr inbounds %struct.ap_uint.14* %regrule3cnt, i64 0, i32 0, i32 0, i32 0, !dbg !20035 ; [#uses=2 type=i32*] [debug line = 1908:26@33:8]
  %t.V.2 = load i32* %regrule3cnt.addr, align 4, !dbg !20035 ; [#uses=3 type=i32] [debug line = 1908:26@33:8]
  call void (...)* @_ssdm_SpecKeepArrayLoad(i32 %t.V.2) nounwind
  call void @llvm.dbg.value(metadata !{i32 %t.V.2}, i64 0, metadata !20015), !dbg !20035 ; [debug line = 1908:26@33:8] [debug variable = t.V]
  call void (...)* @_ssdm_SpecKeepArrayLoad(i32 %t.V.2) nounwind
  %tmp.11 = add i32 %t.V.2, 1, !dbg !20038        ; [#uses=1 type=i32] [debug line = 1879:145@1909:5@33:8]
  store i32 %tmp.11, i32* %regrule3cnt.addr, align 4, !dbg !20038 ; [debug line = 1879:145@1909:5@33:8]
  br label %7, !dbg !20040                        ; [debug line = 34:7]

; <label>:6                                       ; preds = %4
  call void @llvm.dbg.declare(metadata !{%struct.axiWord.21* %tmp.12}, metadata !19875) nounwind, !dbg !20041 ; [debug line = 145:22@36:8] [debug variable = tmp]
  %tmp.12.addr = getelementptr inbounds %struct.axiWord.21* %tmp.12, i64 0, i32 0, i32 0, i32 0, i32 0, !dbg !20043 ; [#uses=1 type=i32*] [debug line = 145:31@36:8]
  call void (...)* @_ssdm_SpecKeepArrayLoad(i32 %tmp.5.load) nounwind
  store i32 %tmp.5.load, i32* %tmp.12.addr, align 4, !dbg !20043 ; [debug line = 145:31@36:8]
  %tmp.12.addr.1 = getelementptr inbounds %struct.axiWord.21* %tmp.12, i64 0, i32 1, i32 0, i32 0, i32 0, !dbg !20043 ; [#uses=1 type=i4*] [debug line = 145:31@36:8]
  call void (...)* @_ssdm_SpecKeepArrayLoad(i4 %tmp.5.load.1) nounwind
  store i4 %tmp.5.load.1, i4* %tmp.12.addr.1, align 4, !dbg !20043 ; [debug line = 145:31@36:8]
  %tmp.12.addr.2 = getelementptr inbounds %struct.axiWord.21* %tmp.12, i64 0, i32 2, i32 0, i32 0, i32 0, !dbg !20043 ; [#uses=1 type=i1*] [debug line = 145:31@36:8]
  call void (...)* @_ssdm_SpecKeepArrayLoad(i1 %tmp.5.load.2) nounwind
  store i1 %tmp.5.load.2, i1* %tmp.12.addr.2, align 1, !dbg !20043 ; [debug line = 145:31@36:8]
  call void @"_ssdm_op_IfWrite.Stream.%struct.axiWord.21 = type { %struct.ap_uint.14, %struct.ap_uint.0.17, %struct.ap_uint.3.20 }P.%struct.axiWord.21 = type { %struct.ap_uint.14, %struct.ap_uint.0.17, %struct.ap_uint.3.20 }P"(%struct.axiWord.21* getelementptr inbounds (%"class.hls::stream.22"* @ip2psFifo, i64 0, i32 0), %struct.axiWord.21* %tmp.12) nounwind, !dbg !20044 ; [debug line = 146:9@36:8]
  br label %7

; <label>:7                                       ; preds = %6, %5
  br label %8

; <label>:8                                       ; preds = %7, %3
  br label %9

; <label>:9                                       ; preds = %8, %1
  br label %._crit_edge1, !dbg !20045             ; [debug line = 38:6]

._crit_edge1:                                     ; preds = %9, %codeRepl
  ret void, !dbg !20046                           ; [debug line = 45:2]
}

; [#uses=1]
declare void @_ssdm_op_SpecTopModule(...)

; [#uses=3]
declare void @_ssdm_op_SpecPipeline(...) nounwind

; [#uses=10]
declare void @_ssdm_op_SpecInterface(...) nounwind

; [#uses=1]
declare void @_ssdm_op_SpecDataflowPipeline(...) nounwind

; [#uses=3]
declare void @"_ssdm_op_IfWrite.Stream.%struct.axiWord.21 = type { %struct.ap_uint.14, %struct.ap_uint.0.17, %struct.ap_uint.3.20 }P.%struct.axiWord.21 = type { %struct.ap_uint.14, %struct.ap_uint.0.17, %struct.ap_uint.3.20 }P"(%struct.axiWord.21*, %struct.axiWord.21*)

; [#uses=3]
declare void @"_ssdm_op_IfRead.Stream.%struct.axiWord.21 = type { %struct.ap_uint.14, %struct.ap_uint.0.17, %struct.ap_uint.3.20 }P.%struct.axiWord.21 = type { %struct.ap_uint.14, %struct.ap_uint.0.17, %struct.ap_uint.3.20 }P"(%struct.axiWord.21*, %struct.axiWord.21*)

; [#uses=3]
declare i1 @"_ssdm_op_IfCanRead.Stream.%struct.axiWord.21 = type { %struct.ap_uint.14, %struct.ap_uint.0.17, %struct.ap_uint.3.20 }P"(%struct.axiWord.21*)

; [#uses=2]
declare void @_ssdm_SpecStream(...) nounwind

; [#uses=45]
declare void @_ssdm_SpecKeepArrayLoad(...)

!llvm.dbg.cu = !{!0, !3678, !7738, !11709, !15731}
!opencl.kernels = !{!19767, !19774, !19776, !19782, !19785, !19785, !19791, !19791, !19797, !19791, !19791, !19791, !19800, !19800, !19802, !19805, !19808, !19811, !19814, !19816, !19818, !19802, !19791, !19791, !19791, !19791, !19791, !19791, !19791, !19791, !19791, !19791, !19791, !19791, !19791, !19791, !19820, !19820, !19820, !19820, !19820, !19820, !19791, !19823, !19820, !19820, !19791, !19791, !19829, !19829, !19791, !19791, !19791, !19791, !19791, !19791, !19791, !19791, !19791, !19791, !19791, !19791, !19834, !19808, !19811, !19814, !19816, !19818, !19802, !19791, !19791, !19791, !19791, !19791, !19791, !19791, !19791, !19791, !19791, !19791, !19791, !19791, !19791, !19820, !19820, !19820, !19820, !19820, !19820, !19791, !19836, !19808, !19839, !19840, !19840, !19791, !19841, !19843, !19811, !19814, !19816, !19818, !19802, !19791, !19791, !19791, !19791, !19791, !19791, !19791, !19791, !19791, !19791, !19791, !19791, !19791, !19791, !19820, !19820, !19820, !19820, !19820, !19820}
!hls.encrypted.func = !{}

!0 = metadata !{i32 786449, i32 0, i32 4, metadata !"C:/Users/zisk/Desktop/2/my_ip_hls/solution1/.autopilot/db/ziskasrules.pragma.2.cpp", metadata !"C:\5CUsers\5Czisk\5CDesktop\5C2", metadata !"clang version 3.1 ", i1 true, i1 false, metadata !"", i32 0, metadata !1, metadata !872, metadata !874, metadata !2668} ; [ DW_TAG_compile_unit ]
!1 = metadata !{metadata !2}
!2 = metadata !{metadata !3, metadata !26, metadata !33, metadata !42, metadata !48, metadata !865}
!3 = metadata !{i32 786436, metadata !4, metadata !"_Ios_Fmtflags", metadata !5, i32 59, i64 17, i64 32, i32 0, i32 0, null, metadata !6, i32 0, i32 0} ; [ DW_TAG_enumeration_type ]
!4 = metadata !{i32 786489, null, metadata !"std", metadata !5, i32 53} ; [ DW_TAG_namespace ]
!5 = metadata !{i32 786473, metadata !"C:/Xilinx/Vivado/2017.4/win64/tools/clang/bin\5C..\5Clib\5Cclang\5C3.1/../../../include/c++/4.5.2\5Cbits/ios_base.h", metadata !"C:\5CUsers\5Czisk\5CDesktop\5C2", null} ; [ DW_TAG_file_type ]
!6 = metadata !{metadata !7, metadata !8, metadata !9, metadata !10, metadata !11, metadata !12, metadata !13, metadata !14, metadata !15, metadata !16, metadata !17, metadata !18, metadata !19, metadata !20, metadata !21, metadata !22, metadata !23, metadata !24, metadata !25}
!7 = metadata !{i32 786472, metadata !"_S_boolalpha", i64 1} ; [ DW_TAG_enumerator ]
!8 = metadata !{i32 786472, metadata !"_S_dec", i64 2} ; [ DW_TAG_enumerator ]
!9 = metadata !{i32 786472, metadata !"_S_fixed", i64 4} ; [ DW_TAG_enumerator ]
!10 = metadata !{i32 786472, metadata !"_S_hex", i64 8} ; [ DW_TAG_enumerator ]
!11 = metadata !{i32 786472, metadata !"_S_internal", i64 16} ; [ DW_TAG_enumerator ]
!12 = metadata !{i32 786472, metadata !"_S_left", i64 32} ; [ DW_TAG_enumerator ]
!13 = metadata !{i32 786472, metadata !"_S_oct", i64 64} ; [ DW_TAG_enumerator ]
!14 = metadata !{i32 786472, metadata !"_S_right", i64 128} ; [ DW_TAG_enumerator ]
!15 = metadata !{i32 786472, metadata !"_S_scientific", i64 256} ; [ DW_TAG_enumerator ]
!16 = metadata !{i32 786472, metadata !"_S_showbase", i64 512} ; [ DW_TAG_enumerator ]
!17 = metadata !{i32 786472, metadata !"_S_showpoint", i64 1024} ; [ DW_TAG_enumerator ]
!18 = metadata !{i32 786472, metadata !"_S_showpos", i64 2048} ; [ DW_TAG_enumerator ]
!19 = metadata !{i32 786472, metadata !"_S_skipws", i64 4096} ; [ DW_TAG_enumerator ]
!20 = metadata !{i32 786472, metadata !"_S_unitbuf", i64 8192} ; [ DW_TAG_enumerator ]
!21 = metadata !{i32 786472, metadata !"_S_uppercase", i64 16384} ; [ DW_TAG_enumerator ]
!22 = metadata !{i32 786472, metadata !"_S_adjustfield", i64 176} ; [ DW_TAG_enumerator ]
!23 = metadata !{i32 786472, metadata !"_S_basefield", i64 74} ; [ DW_TAG_enumerator ]
!24 = metadata !{i32 786472, metadata !"_S_floatfield", i64 260} ; [ DW_TAG_enumerator ]
!25 = metadata !{i32 786472, metadata !"_S_ios_fmtflags_end", i64 65536} ; [ DW_TAG_enumerator ]
!26 = metadata !{i32 786436, metadata !4, metadata !"_Ios_Iostate", metadata !5, i32 151, i64 17, i64 32, i32 0, i32 0, null, metadata !27, i32 0, i32 0} ; [ DW_TAG_enumeration_type ]
!27 = metadata !{metadata !28, metadata !29, metadata !30, metadata !31, metadata !32}
!28 = metadata !{i32 786472, metadata !"_S_goodbit", i64 0} ; [ DW_TAG_enumerator ]
!29 = metadata !{i32 786472, metadata !"_S_badbit", i64 1} ; [ DW_TAG_enumerator ]
!30 = metadata !{i32 786472, metadata !"_S_eofbit", i64 2} ; [ DW_TAG_enumerator ]
!31 = metadata !{i32 786472, metadata !"_S_failbit", i64 4} ; [ DW_TAG_enumerator ]
!32 = metadata !{i32 786472, metadata !"_S_ios_iostate_end", i64 65536} ; [ DW_TAG_enumerator ]
!33 = metadata !{i32 786436, metadata !4, metadata !"_Ios_Openmode", metadata !5, i32 111, i64 17, i64 32, i32 0, i32 0, null, metadata !34, i32 0, i32 0} ; [ DW_TAG_enumeration_type ]
!34 = metadata !{metadata !35, metadata !36, metadata !37, metadata !38, metadata !39, metadata !40, metadata !41}
!35 = metadata !{i32 786472, metadata !"_S_app", i64 1} ; [ DW_TAG_enumerator ]
!36 = metadata !{i32 786472, metadata !"_S_ate", i64 2} ; [ DW_TAG_enumerator ]
!37 = metadata !{i32 786472, metadata !"_S_bin", i64 4} ; [ DW_TAG_enumerator ]
!38 = metadata !{i32 786472, metadata !"_S_in", i64 8} ; [ DW_TAG_enumerator ]
!39 = metadata !{i32 786472, metadata !"_S_out", i64 16} ; [ DW_TAG_enumerator ]
!40 = metadata !{i32 786472, metadata !"_S_trunc", i64 32} ; [ DW_TAG_enumerator ]
!41 = metadata !{i32 786472, metadata !"_S_ios_openmode_end", i64 65536} ; [ DW_TAG_enumerator ]
!42 = metadata !{i32 786436, metadata !4, metadata !"_Ios_Seekdir", metadata !5, i32 188, i64 17, i64 32, i32 0, i32 0, null, metadata !43, i32 0, i32 0} ; [ DW_TAG_enumeration_type ]
!43 = metadata !{metadata !44, metadata !45, metadata !46, metadata !47}
!44 = metadata !{i32 786472, metadata !"_S_beg", i64 0} ; [ DW_TAG_enumerator ]
!45 = metadata !{i32 786472, metadata !"_S_cur", i64 1} ; [ DW_TAG_enumerator ]
!46 = metadata !{i32 786472, metadata !"_S_end", i64 2} ; [ DW_TAG_enumerator ]
!47 = metadata !{i32 786472, metadata !"_S_ios_seekdir_end", i64 65536} ; [ DW_TAG_enumerator ]
!48 = metadata !{i32 786436, metadata !49, metadata !"event", metadata !5, i32 426, i64 2, i64 2, i32 0, i32 0, null, metadata !861, i32 0, i32 0} ; [ DW_TAG_enumeration_type ]
!49 = metadata !{i32 786434, metadata !4, metadata !"ios_base", metadata !5, i32 206, i64 1728, i64 64, i32 0, i32 0, null, metadata !50, i32 0, metadata !49, null} ; [ DW_TAG_class_type ]
!50 = metadata !{metadata !51, metadata !57, metadata !63, metadata !64, metadata !66, metadata !68, metadata !69, metadata !95, metadata !106, metadata !110, metadata !111, metadata !113, metadata !793, metadata !797, metadata !800, metadata !803, metadata !807, metadata !808, metadata !813, metadata !816, metadata !817, metadata !820, metadata !823, metadata !826, metadata !829, metadata !830, metadata !831, metadata !834, metadata !837, metadata !840, metadata !843, metadata !844, metadata !848, metadata !852, metadata !853, metadata !854, metadata !858}
!51 = metadata !{i32 786445, metadata !5, metadata !"_vptr$ios_base", metadata !5, i32 0, i64 64, i64 0, i64 0, i32 0, metadata !52} ; [ DW_TAG_member ]
!52 = metadata !{i32 786447, null, metadata !"", null, i32 0, i64 64, i64 0, i64 0, i32 0, metadata !53} ; [ DW_TAG_pointer_type ]
!53 = metadata !{i32 786447, null, metadata !"__vtbl_ptr_type", null, i32 0, i64 64, i64 0, i64 0, i32 0, metadata !54} ; [ DW_TAG_pointer_type ]
!54 = metadata !{i32 786453, i32 0, metadata !"", i32 0, i32 0, i64 0, i64 0, i64 0, i32 0, null, metadata !55, i32 0, i32 0} ; [ DW_TAG_subroutine_type ]
!55 = metadata !{metadata !56}
!56 = metadata !{i32 786468, null, metadata !"int", null, i32 0, i64 32, i64 32, i64 0, i32 0, i32 5} ; [ DW_TAG_base_type ]
!57 = metadata !{i32 786445, metadata !49, metadata !"_M_precision", metadata !5, i32 459, i64 64, i64 64, i64 64, i32 2, metadata !58} ; [ DW_TAG_member ]
!58 = metadata !{i32 786454, metadata !59, metadata !"streamsize", metadata !5, i32 97, i64 0, i64 0, i64 0, i32 0, metadata !61} ; [ DW_TAG_typedef ]
!59 = metadata !{i32 786489, null, metadata !"std", metadata !60, i32 69} ; [ DW_TAG_namespace ]
!60 = metadata !{i32 786473, metadata !"C:/Xilinx/Vivado/2017.4/win64/tools/clang/bin\5C..\5Clib\5Cclang\5C3.1/../../../include/c++/4.5.2\5Cbits/postypes.h", metadata !"C:\5CUsers\5Czisk\5CDesktop\5C2", null} ; [ DW_TAG_file_type ]
!61 = metadata !{i32 786454, null, metadata !"ptrdiff_t", metadata !5, i32 31, i64 0, i64 0, i64 0, i32 0, metadata !62} ; [ DW_TAG_typedef ]
!62 = metadata !{i32 786468, null, metadata !"long long int", null, i32 0, i64 64, i64 64, i64 0, i32 0, i32 5} ; [ DW_TAG_base_type ]
!63 = metadata !{i32 786445, metadata !49, metadata !"_M_width", metadata !5, i32 460, i64 64, i64 64, i64 128, i32 2, metadata !58} ; [ DW_TAG_member ]
!64 = metadata !{i32 786445, metadata !49, metadata !"_M_flags", metadata !5, i32 461, i64 17, i64 32, i64 192, i32 2, metadata !65} ; [ DW_TAG_member ]
!65 = metadata !{i32 786454, metadata !49, metadata !"fmtflags", metadata !5, i32 262, i64 0, i64 0, i64 0, i32 0, metadata !3} ; [ DW_TAG_typedef ]
!66 = metadata !{i32 786445, metadata !49, metadata !"_M_exception", metadata !5, i32 462, i64 17, i64 32, i64 224, i32 2, metadata !67} ; [ DW_TAG_member ]
!67 = metadata !{i32 786454, metadata !49, metadata !"iostate", metadata !5, i32 337, i64 0, i64 0, i64 0, i32 0, metadata !26} ; [ DW_TAG_typedef ]
!68 = metadata !{i32 786445, metadata !49, metadata !"_M_streambuf_state", metadata !5, i32 463, i64 17, i64 32, i64 256, i32 2, metadata !67} ; [ DW_TAG_member ]
!69 = metadata !{i32 786445, metadata !49, metadata !"_M_callbacks", metadata !5, i32 488, i64 64, i64 64, i64 320, i32 2, metadata !70} ; [ DW_TAG_member ]
!70 = metadata !{i32 786447, null, metadata !"", null, i32 0, i64 64, i64 64, i64 0, i32 0, metadata !71} ; [ DW_TAG_pointer_type ]
!71 = metadata !{i32 786434, metadata !49, metadata !"_Callback_list", metadata !5, i32 467, i64 192, i64 64, i32 0, i32 0, null, metadata !72, i32 0, null, null} ; [ DW_TAG_class_type ]
!72 = metadata !{metadata !73, metadata !74, metadata !80, metadata !81, metadata !83, metadata !89, metadata !92}
!73 = metadata !{i32 786445, metadata !71, metadata !"_M_next", metadata !5, i32 470, i64 64, i64 64, i64 0, i32 0, metadata !70} ; [ DW_TAG_member ]
!74 = metadata !{i32 786445, metadata !71, metadata !"_M_fn", metadata !5, i32 471, i64 64, i64 64, i64 64, i32 0, metadata !75} ; [ DW_TAG_member ]
!75 = metadata !{i32 786454, metadata !49, metadata !"event_callback", metadata !5, i32 443, i64 0, i64 0, i64 0, i32 0, metadata !76} ; [ DW_TAG_typedef ]
!76 = metadata !{i32 786447, null, metadata !"", null, i32 0, i64 64, i64 64, i64 0, i32 0, metadata !77} ; [ DW_TAG_pointer_type ]
!77 = metadata !{i32 786453, i32 0, metadata !"", i32 0, i32 0, i64 0, i64 0, i64 0, i32 0, null, metadata !78, i32 0, i32 0} ; [ DW_TAG_subroutine_type ]
!78 = metadata !{null, metadata !48, metadata !79, metadata !56}
!79 = metadata !{i32 786448, null, null, null, i32 0, i64 0, i64 0, i64 0, i32 0, metadata !49} ; [ DW_TAG_reference_type ]
!80 = metadata !{i32 786445, metadata !71, metadata !"_M_index", metadata !5, i32 472, i64 32, i64 32, i64 128, i32 0, metadata !56} ; [ DW_TAG_member ]
!81 = metadata !{i32 786445, metadata !71, metadata !"_M_refcount", metadata !5, i32 473, i64 32, i64 32, i64 160, i32 0, metadata !82} ; [ DW_TAG_member ]
!82 = metadata !{i32 786454, null, metadata !"_Atomic_word", metadata !5, i32 32, i64 0, i64 0, i64 0, i32 0, metadata !56} ; [ DW_TAG_typedef ]
!83 = metadata !{i32 786478, i32 0, metadata !71, metadata !"_Callback_list", metadata !"_Callback_list", metadata !"", metadata !5, i32 475, metadata !84, i1 false, i1 false, i32 0, i32 0, null, i32 256, i1 false, null, null, i32 0, metadata !87, i32 475} ; [ DW_TAG_subprogram ]
!84 = metadata !{i32 786453, i32 0, metadata !"", i32 0, i32 0, i64 0, i64 0, i64 0, i32 0, null, metadata !85, i32 0, i32 0} ; [ DW_TAG_subroutine_type ]
!85 = metadata !{null, metadata !86, metadata !75, metadata !56, metadata !70}
!86 = metadata !{i32 786447, i32 0, metadata !"", i32 0, i32 0, i64 64, i64 64, i64 0, i32 64, metadata !71} ; [ DW_TAG_pointer_type ]
!87 = metadata !{metadata !88}
!88 = metadata !{i32 786468}                      ; [ DW_TAG_base_type ]
!89 = metadata !{i32 786478, i32 0, metadata !71, metadata !"_M_add_reference", metadata !"_M_add_reference", metadata !"_ZNSt8ios_base14_Callback_list16_M_add_referenceEv", metadata !5, i32 480, metadata !90, i1 false, i1 false, i32 0, i32 0, null, i32 256, i1 false, null, null, i32 0, metadata !87, i32 480} ; [ DW_TAG_subprogram ]
!90 = metadata !{i32 786453, i32 0, metadata !"", i32 0, i32 0, i64 0, i64 0, i64 0, i32 0, null, metadata !91, i32 0, i32 0} ; [ DW_TAG_subroutine_type ]
!91 = metadata !{null, metadata !86}
!92 = metadata !{i32 786478, i32 0, metadata !71, metadata !"_M_remove_reference", metadata !"_M_remove_reference", metadata !"_ZNSt8ios_base14_Callback_list19_M_remove_referenceEv", metadata !5, i32 484, metadata !93, i1 false, i1 false, i32 0, i32 0, null, i32 256, i1 false, null, null, i32 0, metadata !87, i32 484} ; [ DW_TAG_subprogram ]
!93 = metadata !{i32 786453, i32 0, metadata !"", i32 0, i32 0, i64 0, i64 0, i64 0, i32 0, null, metadata !94, i32 0, i32 0} ; [ DW_TAG_subroutine_type ]
!94 = metadata !{metadata !56, metadata !86}
!95 = metadata !{i32 786445, metadata !49, metadata !"_M_word_zero", metadata !5, i32 505, i64 128, i64 64, i64 384, i32 2, metadata !96} ; [ DW_TAG_member ]
!96 = metadata !{i32 786434, metadata !49, metadata !"_Words", metadata !5, i32 497, i64 128, i64 64, i32 0, i32 0, null, metadata !97, i32 0, null, null} ; [ DW_TAG_class_type ]
!97 = metadata !{metadata !98, metadata !100, metadata !102}
!98 = metadata !{i32 786445, metadata !96, metadata !"_M_pword", metadata !5, i32 499, i64 64, i64 64, i64 0, i32 0, metadata !99} ; [ DW_TAG_member ]
!99 = metadata !{i32 786447, null, metadata !"", null, i32 0, i64 64, i64 64, i64 0, i32 0, null} ; [ DW_TAG_pointer_type ]
!100 = metadata !{i32 786445, metadata !96, metadata !"_M_iword", metadata !5, i32 500, i64 32, i64 32, i64 64, i32 0, metadata !101} ; [ DW_TAG_member ]
!101 = metadata !{i32 786468, null, metadata !"long int", null, i32 0, i64 32, i64 32, i64 0, i32 0, i32 5} ; [ DW_TAG_base_type ]
!102 = metadata !{i32 786478, i32 0, metadata !96, metadata !"_Words", metadata !"_Words", metadata !"", metadata !5, i32 501, metadata !103, i1 false, i1 false, i32 0, i32 0, null, i32 256, i1 false, null, null, i32 0, metadata !87, i32 501} ; [ DW_TAG_subprogram ]
!103 = metadata !{i32 786453, i32 0, metadata !"", i32 0, i32 0, i64 0, i64 0, i64 0, i32 0, null, metadata !104, i32 0, i32 0} ; [ DW_TAG_subroutine_type ]
!104 = metadata !{null, metadata !105}
!105 = metadata !{i32 786447, i32 0, metadata !"", i32 0, i32 0, i64 64, i64 64, i64 0, i32 64, metadata !96} ; [ DW_TAG_pointer_type ]
!106 = metadata !{i32 786445, metadata !49, metadata !"_M_local_word", metadata !5, i32 510, i64 1024, i64 64, i64 512, i32 2, metadata !107} ; [ DW_TAG_member ]
!107 = metadata !{i32 786433, null, metadata !"", null, i32 0, i64 1024, i64 64, i32 0, i32 0, metadata !96, metadata !108, i32 0, i32 0} ; [ DW_TAG_array_type ]
!108 = metadata !{metadata !109}
!109 = metadata !{i32 786465, i64 0, i64 7}       ; [ DW_TAG_subrange_type ]
!110 = metadata !{i32 786445, metadata !49, metadata !"_M_word_size", metadata !5, i32 513, i64 32, i64 32, i64 1536, i32 2, metadata !56} ; [ DW_TAG_member ]
!111 = metadata !{i32 786445, metadata !49, metadata !"_M_word", metadata !5, i32 514, i64 64, i64 64, i64 1600, i32 2, metadata !112} ; [ DW_TAG_member ]
!112 = metadata !{i32 786447, null, metadata !"", null, i32 0, i64 64, i64 64, i64 0, i32 0, metadata !96} ; [ DW_TAG_pointer_type ]
!113 = metadata !{i32 786445, metadata !49, metadata !"_M_ios_locale", metadata !5, i32 520, i64 64, i64 64, i64 1664, i32 2, metadata !114} ; [ DW_TAG_member ]
!114 = metadata !{i32 786434, metadata !115, metadata !"locale", metadata !116, i32 61, i64 64, i64 64, i32 0, i32 0, null, metadata !117, i32 0, null, null} ; [ DW_TAG_class_type ]
!115 = metadata !{i32 786489, null, metadata !"std", metadata !116, i32 44} ; [ DW_TAG_namespace ]
!116 = metadata !{i32 786473, metadata !"C:/Xilinx/Vivado/2017.4/win64/tools/clang/bin\5C..\5Clib\5Cclang\5C3.1/../../../include/c++/4.5.2\5Cbits/locale_classes.h", metadata !"C:\5CUsers\5Czisk\5CDesktop\5C2", null} ; [ DW_TAG_file_type ]
!117 = metadata !{metadata !118, metadata !255, metadata !259, metadata !264, metadata !267, metadata !270, metadata !273, metadata !274, metadata !277, metadata !772, metadata !775, metadata !776, metadata !779, metadata !782, metadata !785, metadata !786, metadata !787, metadata !790, metadata !791, metadata !792}
!118 = metadata !{i32 786445, metadata !114, metadata !"_M_impl", metadata !116, i32 278, i64 64, i64 64, i64 0, i32 1, metadata !119} ; [ DW_TAG_member ]
!119 = metadata !{i32 786447, null, metadata !"", null, i32 0, i64 64, i64 64, i64 0, i32 0, metadata !120} ; [ DW_TAG_pointer_type ]
!120 = metadata !{i32 786434, metadata !114, metadata !"_Impl", metadata !116, i32 470, i64 320, i64 64, i32 0, i32 0, null, metadata !121, i32 0, null, null} ; [ DW_TAG_class_type ]
!121 = metadata !{metadata !122, metadata !123, metadata !184, metadata !185, metadata !186, metadata !189, metadata !193, metadata !194, metadata !199, metadata !202, metadata !205, metadata !206, metadata !209, metadata !210, metadata !214, metadata !219, metadata !244, metadata !247, metadata !250, metadata !253, metadata !254}
!122 = metadata !{i32 786445, metadata !120, metadata !"_M_refcount", metadata !116, i32 490, i64 32, i64 32, i64 0, i32 1, metadata !82} ; [ DW_TAG_member ]
!123 = metadata !{i32 786445, metadata !120, metadata !"_M_facets", metadata !116, i32 491, i64 64, i64 64, i64 64, i32 1, metadata !124} ; [ DW_TAG_member ]
!124 = metadata !{i32 786447, null, metadata !"", null, i32 0, i64 64, i64 64, i64 0, i32 0, metadata !125} ; [ DW_TAG_pointer_type ]
!125 = metadata !{i32 786447, null, metadata !"", null, i32 0, i64 64, i64 64, i64 0, i32 0, metadata !126} ; [ DW_TAG_pointer_type ]
!126 = metadata !{i32 786470, null, metadata !"", null, i32 0, i64 0, i64 0, i64 0, i32 0, metadata !127} ; [ DW_TAG_const_type ]
!127 = metadata !{i32 786434, metadata !114, metadata !"facet", metadata !116, i32 336, i64 128, i64 64, i32 0, i32 0, null, metadata !128, i32 0, metadata !127, null} ; [ DW_TAG_class_type ]
!128 = metadata !{metadata !129, metadata !130, metadata !131, metadata !134, metadata !140, metadata !143, metadata !154, metadata !157, metadata !160, metadata !163, metadata !166, metadata !169, metadata !173, metadata !174, metadata !178, metadata !182, metadata !183}
!129 = metadata !{i32 786445, metadata !116, metadata !"_vptr$facet", metadata !116, i32 0, i64 64, i64 0, i64 0, i32 0, metadata !52} ; [ DW_TAG_member ]
!130 = metadata !{i32 786445, metadata !127, metadata !"_M_refcount", metadata !116, i32 342, i64 32, i64 32, i64 64, i32 1, metadata !82} ; [ DW_TAG_member ]
!131 = metadata !{i32 786478, i32 0, metadata !127, metadata !"_S_initialize_once", metadata !"_S_initialize_once", metadata !"_ZNSt6locale5facet18_S_initialize_onceEv", metadata !116, i32 355, metadata !132, i1 false, i1 false, i32 0, i32 0, null, i32 257, i1 false, null, null, i32 0, metadata !87, i32 355} ; [ DW_TAG_subprogram ]
!132 = metadata !{i32 786453, i32 0, metadata !"", i32 0, i32 0, i64 0, i64 0, i64 0, i32 0, null, metadata !133, i32 0, i32 0} ; [ DW_TAG_subroutine_type ]
!133 = metadata !{null}
!134 = metadata !{i32 786478, i32 0, metadata !127, metadata !"facet", metadata !"facet", metadata !"", metadata !116, i32 368, metadata !135, i1 false, i1 false, i32 0, i32 0, null, i32 386, i1 false, null, null, i32 0, metadata !87, i32 368} ; [ DW_TAG_subprogram ]
!135 = metadata !{i32 786453, i32 0, metadata !"", i32 0, i32 0, i64 0, i64 0, i64 0, i32 0, null, metadata !136, i32 0, i32 0} ; [ DW_TAG_subroutine_type ]
!136 = metadata !{null, metadata !137, metadata !138}
!137 = metadata !{i32 786447, i32 0, metadata !"", i32 0, i32 0, i64 64, i64 64, i64 0, i32 64, metadata !127} ; [ DW_TAG_pointer_type ]
!138 = metadata !{i32 786454, null, metadata !"size_t", metadata !116, i32 35, i64 0, i64 0, i64 0, i32 0, metadata !139} ; [ DW_TAG_typedef ]
!139 = metadata !{i32 786468, null, metadata !"long long unsigned int", null, i32 0, i64 64, i64 64, i64 0, i32 0, i32 7} ; [ DW_TAG_base_type ]
!140 = metadata !{i32 786478, i32 0, metadata !127, metadata !"~facet", metadata !"~facet", metadata !"", metadata !116, i32 373, metadata !141, i1 false, i1 false, i32 1, i32 0, metadata !127, i32 258, i1 false, null, null, i32 0, metadata !87, i32 373} ; [ DW_TAG_subprogram ]
!141 = metadata !{i32 786453, i32 0, metadata !"", i32 0, i32 0, i64 0, i64 0, i64 0, i32 0, null, metadata !142, i32 0, i32 0} ; [ DW_TAG_subroutine_type ]
!142 = metadata !{null, metadata !137}
!143 = metadata !{i32 786478, i32 0, metadata !127, metadata !"_S_create_c_locale", metadata !"_S_create_c_locale", metadata !"_ZNSt6locale5facet18_S_create_c_localeERPiPKcS1_", metadata !116, i32 376, metadata !144, i1 false, i1 false, i32 0, i32 0, null, i32 258, i1 false, null, null, i32 0, metadata !87, i32 376} ; [ DW_TAG_subprogram ]
!144 = metadata !{i32 786453, i32 0, metadata !"", i32 0, i32 0, i64 0, i64 0, i64 0, i32 0, null, metadata !145, i32 0, i32 0} ; [ DW_TAG_subroutine_type ]
!145 = metadata !{null, metadata !146, metadata !151, metadata !147}
!146 = metadata !{i32 786448, null, null, null, i32 0, i64 0, i64 0, i64 0, i32 0, metadata !147} ; [ DW_TAG_reference_type ]
!147 = metadata !{i32 786454, metadata !148, metadata !"__c_locale", metadata !116, i32 48, i64 0, i64 0, i64 0, i32 0, metadata !150} ; [ DW_TAG_typedef ]
!148 = metadata !{i32 786489, null, metadata !"std", metadata !149, i32 46} ; [ DW_TAG_namespace ]
!149 = metadata !{i32 786473, metadata !"C:/Xilinx/Vivado/2017.4/win64/tools/clang/bin\5C..\5Clib\5Cclang\5C3.1/../../../include/c++/4.5.2/x86_64-w64-mingw32\5Cbits/c++locale.h", metadata !"C:\5CUsers\5Czisk\5CDesktop\5C2", null} ; [ DW_TAG_file_type ]
!150 = metadata !{i32 786447, null, metadata !"", null, i32 0, i64 64, i64 64, i64 0, i32 0, metadata !56} ; [ DW_TAG_pointer_type ]
!151 = metadata !{i32 786447, null, metadata !"", null, i32 0, i64 64, i64 64, i64 0, i32 0, metadata !152} ; [ DW_TAG_pointer_type ]
!152 = metadata !{i32 786470, null, metadata !"", null, i32 0, i64 0, i64 0, i64 0, i32 0, metadata !153} ; [ DW_TAG_const_type ]
!153 = metadata !{i32 786468, null, metadata !"char", null, i32 0, i64 8, i64 8, i64 0, i32 0, i32 6} ; [ DW_TAG_base_type ]
!154 = metadata !{i32 786478, i32 0, metadata !127, metadata !"_S_clone_c_locale", metadata !"_S_clone_c_locale", metadata !"_ZNSt6locale5facet17_S_clone_c_localeERPi", metadata !116, i32 380, metadata !155, i1 false, i1 false, i32 0, i32 0, null, i32 258, i1 false, null, null, i32 0, metadata !87, i32 380} ; [ DW_TAG_subprogram ]
!155 = metadata !{i32 786453, i32 0, metadata !"", i32 0, i32 0, i64 0, i64 0, i64 0, i32 0, null, metadata !156, i32 0, i32 0} ; [ DW_TAG_subroutine_type ]
!156 = metadata !{metadata !147, metadata !146}
!157 = metadata !{i32 786478, i32 0, metadata !127, metadata !"_S_destroy_c_locale", metadata !"_S_destroy_c_locale", metadata !"_ZNSt6locale5facet19_S_destroy_c_localeERPi", metadata !116, i32 383, metadata !158, i1 false, i1 false, i32 0, i32 0, null, i32 258, i1 false, null, null, i32 0, metadata !87, i32 383} ; [ DW_TAG_subprogram ]
!158 = metadata !{i32 786453, i32 0, metadata !"", i32 0, i32 0, i64 0, i64 0, i64 0, i32 0, null, metadata !159, i32 0, i32 0} ; [ DW_TAG_subroutine_type ]
!159 = metadata !{null, metadata !146}
!160 = metadata !{i32 786478, i32 0, metadata !127, metadata !"_S_lc_ctype_c_locale", metadata !"_S_lc_ctype_c_locale", metadata !"_ZNSt6locale5facet20_S_lc_ctype_c_localeEPiPKc", metadata !116, i32 386, metadata !161, i1 false, i1 false, i32 0, i32 0, null, i32 258, i1 false, null, null, i32 0, metadata !87, i32 386} ; [ DW_TAG_subprogram ]
!161 = metadata !{i32 786453, i32 0, metadata !"", i32 0, i32 0, i64 0, i64 0, i64 0, i32 0, null, metadata !162, i32 0, i32 0} ; [ DW_TAG_subroutine_type ]
!162 = metadata !{metadata !147, metadata !147, metadata !151}
!163 = metadata !{i32 786478, i32 0, metadata !127, metadata !"_S_get_c_locale", metadata !"_S_get_c_locale", metadata !"_ZNSt6locale5facet15_S_get_c_localeEv", metadata !116, i32 391, metadata !164, i1 false, i1 false, i32 0, i32 0, null, i32 258, i1 false, null, null, i32 0, metadata !87, i32 391} ; [ DW_TAG_subprogram ]
!164 = metadata !{i32 786453, i32 0, metadata !"", i32 0, i32 0, i64 0, i64 0, i64 0, i32 0, null, metadata !165, i32 0, i32 0} ; [ DW_TAG_subroutine_type ]
!165 = metadata !{metadata !147}
!166 = metadata !{i32 786478, i32 0, metadata !127, metadata !"_S_get_c_name", metadata !"_S_get_c_name", metadata !"_ZNSt6locale5facet13_S_get_c_nameEv", metadata !116, i32 394, metadata !167, i1 false, i1 false, i32 0, i32 0, null, i32 258, i1 false, null, null, i32 0, metadata !87, i32 394} ; [ DW_TAG_subprogram ]
!167 = metadata !{i32 786453, i32 0, metadata !"", i32 0, i32 0, i64 0, i64 0, i64 0, i32 0, null, metadata !168, i32 0, i32 0} ; [ DW_TAG_subroutine_type ]
!168 = metadata !{metadata !151}
!169 = metadata !{i32 786478, i32 0, metadata !127, metadata !"_M_add_reference", metadata !"_M_add_reference", metadata !"_ZNKSt6locale5facet16_M_add_referenceEv", metadata !116, i32 398, metadata !170, i1 false, i1 false, i32 0, i32 0, null, i32 257, i1 false, null, null, i32 0, metadata !87, i32 398} ; [ DW_TAG_subprogram ]
!170 = metadata !{i32 786453, i32 0, metadata !"", i32 0, i32 0, i64 0, i64 0, i64 0, i32 0, null, metadata !171, i32 0, i32 0} ; [ DW_TAG_subroutine_type ]
!171 = metadata !{null, metadata !172}
!172 = metadata !{i32 786447, i32 0, metadata !"", i32 0, i32 0, i64 64, i64 64, i64 0, i32 64, metadata !126} ; [ DW_TAG_pointer_type ]
!173 = metadata !{i32 786478, i32 0, metadata !127, metadata !"_M_remove_reference", metadata !"_M_remove_reference", metadata !"_ZNKSt6locale5facet19_M_remove_referenceEv", metadata !116, i32 402, metadata !170, i1 false, i1 false, i32 0, i32 0, null, i32 257, i1 false, null, null, i32 0, metadata !87, i32 402} ; [ DW_TAG_subprogram ]
!174 = metadata !{i32 786478, i32 0, metadata !127, metadata !"facet", metadata !"facet", metadata !"", metadata !116, i32 413, metadata !175, i1 false, i1 false, i32 0, i32 0, null, i32 257, i1 false, null, null, i32 0, metadata !87, i32 413} ; [ DW_TAG_subprogram ]
!175 = metadata !{i32 786453, i32 0, metadata !"", i32 0, i32 0, i64 0, i64 0, i64 0, i32 0, null, metadata !176, i32 0, i32 0} ; [ DW_TAG_subroutine_type ]
!176 = metadata !{null, metadata !137, metadata !177}
!177 = metadata !{i32 786448, null, null, null, i32 0, i64 0, i64 0, i64 0, i32 0, metadata !126} ; [ DW_TAG_reference_type ]
!178 = metadata !{i32 786478, i32 0, metadata !127, metadata !"operator=", metadata !"operator=", metadata !"_ZNSt6locale5facetaSERKS0_", metadata !116, i32 416, metadata !179, i1 false, i1 false, i32 0, i32 0, null, i32 257, i1 false, null, null, i32 0, metadata !87, i32 416} ; [ DW_TAG_subprogram ]
!179 = metadata !{i32 786453, i32 0, metadata !"", i32 0, i32 0, i64 0, i64 0, i64 0, i32 0, null, metadata !180, i32 0, i32 0} ; [ DW_TAG_subroutine_type ]
!180 = metadata !{metadata !181, metadata !137, metadata !177}
!181 = metadata !{i32 786448, null, null, null, i32 0, i64 0, i64 0, i64 0, i32 0, metadata !127} ; [ DW_TAG_reference_type ]
!182 = metadata !{i32 786474, metadata !127, null, metadata !116, i32 0, i64 0, i64 0, i64 0, i32 0, metadata !120} ; [ DW_TAG_friend ]
!183 = metadata !{i32 786474, metadata !127, null, metadata !116, i32 0, i64 0, i64 0, i64 0, i32 0, metadata !114} ; [ DW_TAG_friend ]
!184 = metadata !{i32 786445, metadata !120, metadata !"_M_facets_size", metadata !116, i32 492, i64 64, i64 64, i64 128, i32 1, metadata !138} ; [ DW_TAG_member ]
!185 = metadata !{i32 786445, metadata !120, metadata !"_M_caches", metadata !116, i32 493, i64 64, i64 64, i64 192, i32 1, metadata !124} ; [ DW_TAG_member ]
!186 = metadata !{i32 786445, metadata !120, metadata !"_M_names", metadata !116, i32 494, i64 64, i64 64, i64 256, i32 1, metadata !187} ; [ DW_TAG_member ]
!187 = metadata !{i32 786447, null, metadata !"", null, i32 0, i64 64, i64 64, i64 0, i32 0, metadata !188} ; [ DW_TAG_pointer_type ]
!188 = metadata !{i32 786447, null, metadata !"", null, i32 0, i64 64, i64 64, i64 0, i32 0, metadata !153} ; [ DW_TAG_pointer_type ]
!189 = metadata !{i32 786478, i32 0, metadata !120, metadata !"_M_add_reference", metadata !"_M_add_reference", metadata !"_ZNSt6locale5_Impl16_M_add_referenceEv", metadata !116, i32 504, metadata !190, i1 false, i1 false, i32 0, i32 0, null, i32 257, i1 false, null, null, i32 0, metadata !87, i32 504} ; [ DW_TAG_subprogram ]
!190 = metadata !{i32 786453, i32 0, metadata !"", i32 0, i32 0, i64 0, i64 0, i64 0, i32 0, null, metadata !191, i32 0, i32 0} ; [ DW_TAG_subroutine_type ]
!191 = metadata !{null, metadata !192}
!192 = metadata !{i32 786447, i32 0, metadata !"", i32 0, i32 0, i64 64, i64 64, i64 0, i32 64, metadata !120} ; [ DW_TAG_pointer_type ]
!193 = metadata !{i32 786478, i32 0, metadata !120, metadata !"_M_remove_reference", metadata !"_M_remove_reference", metadata !"_ZNSt6locale5_Impl19_M_remove_referenceEv", metadata !116, i32 508, metadata !190, i1 false, i1 false, i32 0, i32 0, null, i32 257, i1 false, null, null, i32 0, metadata !87, i32 508} ; [ DW_TAG_subprogram ]
!194 = metadata !{i32 786478, i32 0, metadata !120, metadata !"_Impl", metadata !"_Impl", metadata !"", metadata !116, i32 519, metadata !195, i1 false, i1 false, i32 0, i32 0, null, i32 257, i1 false, null, null, i32 0, metadata !87, i32 519} ; [ DW_TAG_subprogram ]
!195 = metadata !{i32 786453, i32 0, metadata !"", i32 0, i32 0, i64 0, i64 0, i64 0, i32 0, null, metadata !196, i32 0, i32 0} ; [ DW_TAG_subroutine_type ]
!196 = metadata !{null, metadata !192, metadata !197, metadata !138}
!197 = metadata !{i32 786448, null, null, null, i32 0, i64 0, i64 0, i64 0, i32 0, metadata !198} ; [ DW_TAG_reference_type ]
!198 = metadata !{i32 786470, null, metadata !"", null, i32 0, i64 0, i64 0, i64 0, i32 0, metadata !120} ; [ DW_TAG_const_type ]
!199 = metadata !{i32 786478, i32 0, metadata !120, metadata !"_Impl", metadata !"_Impl", metadata !"", metadata !116, i32 520, metadata !200, i1 false, i1 false, i32 0, i32 0, null, i32 257, i1 false, null, null, i32 0, metadata !87, i32 520} ; [ DW_TAG_subprogram ]
!200 = metadata !{i32 786453, i32 0, metadata !"", i32 0, i32 0, i64 0, i64 0, i64 0, i32 0, null, metadata !201, i32 0, i32 0} ; [ DW_TAG_subroutine_type ]
!201 = metadata !{null, metadata !192, metadata !151, metadata !138}
!202 = metadata !{i32 786478, i32 0, metadata !120, metadata !"_Impl", metadata !"_Impl", metadata !"", metadata !116, i32 521, metadata !203, i1 false, i1 false, i32 0, i32 0, null, i32 257, i1 false, null, null, i32 0, metadata !87, i32 521} ; [ DW_TAG_subprogram ]
!203 = metadata !{i32 786453, i32 0, metadata !"", i32 0, i32 0, i64 0, i64 0, i64 0, i32 0, null, metadata !204, i32 0, i32 0} ; [ DW_TAG_subroutine_type ]
!204 = metadata !{null, metadata !192, metadata !138}
!205 = metadata !{i32 786478, i32 0, metadata !120, metadata !"~_Impl", metadata !"~_Impl", metadata !"", metadata !116, i32 523, metadata !190, i1 false, i1 false, i32 0, i32 0, null, i32 257, i1 false, null, null, i32 0, metadata !87, i32 523} ; [ DW_TAG_subprogram ]
!206 = metadata !{i32 786478, i32 0, metadata !120, metadata !"_Impl", metadata !"_Impl", metadata !"", metadata !116, i32 525, metadata !207, i1 false, i1 false, i32 0, i32 0, null, i32 257, i1 false, null, null, i32 0, metadata !87, i32 525} ; [ DW_TAG_subprogram ]
!207 = metadata !{i32 786453, i32 0, metadata !"", i32 0, i32 0, i64 0, i64 0, i64 0, i32 0, null, metadata !208, i32 0, i32 0} ; [ DW_TAG_subroutine_type ]
!208 = metadata !{null, metadata !192, metadata !197}
!209 = metadata !{i32 786478, i32 0, metadata !120, metadata !"operator=", metadata !"operator=", metadata !"_ZNSt6locale5_ImplaSERKS0_", metadata !116, i32 528, metadata !207, i1 false, i1 false, i32 0, i32 0, null, i32 257, i1 false, null, null, i32 0, metadata !87, i32 528} ; [ DW_TAG_subprogram ]
!210 = metadata !{i32 786478, i32 0, metadata !120, metadata !"_M_check_same_name", metadata !"_M_check_same_name", metadata !"_ZNSt6locale5_Impl18_M_check_same_nameEv", metadata !116, i32 531, metadata !211, i1 false, i1 false, i32 0, i32 0, null, i32 257, i1 false, null, null, i32 0, metadata !87, i32 531} ; [ DW_TAG_subprogram ]
!211 = metadata !{i32 786453, i32 0, metadata !"", i32 0, i32 0, i64 0, i64 0, i64 0, i32 0, null, metadata !212, i32 0, i32 0} ; [ DW_TAG_subroutine_type ]
!212 = metadata !{metadata !213, metadata !192}
!213 = metadata !{i32 786468, null, metadata !"bool", null, i32 0, i64 8, i64 8, i64 0, i32 0, i32 2} ; [ DW_TAG_base_type ]
!214 = metadata !{i32 786478, i32 0, metadata !120, metadata !"_M_replace_categories", metadata !"_M_replace_categories", metadata !"_ZNSt6locale5_Impl21_M_replace_categoriesEPKS0_i", metadata !116, i32 542, metadata !215, i1 false, i1 false, i32 0, i32 0, null, i32 257, i1 false, null, null, i32 0, metadata !87, i32 542} ; [ DW_TAG_subprogram ]
!215 = metadata !{i32 786453, i32 0, metadata !"", i32 0, i32 0, i64 0, i64 0, i64 0, i32 0, null, metadata !216, i32 0, i32 0} ; [ DW_TAG_subroutine_type ]
!216 = metadata !{null, metadata !192, metadata !217, metadata !218}
!217 = metadata !{i32 786447, null, metadata !"", null, i32 0, i64 64, i64 64, i64 0, i32 0, metadata !198} ; [ DW_TAG_pointer_type ]
!218 = metadata !{i32 786454, metadata !114, metadata !"category", metadata !116, i32 66, i64 0, i64 0, i64 0, i32 0, metadata !56} ; [ DW_TAG_typedef ]
!219 = metadata !{i32 786478, i32 0, metadata !120, metadata !"_M_replace_category", metadata !"_M_replace_category", metadata !"_ZNSt6locale5_Impl19_M_replace_categoryEPKS0_PKPKNS_2idE", metadata !116, i32 545, metadata !220, i1 false, i1 false, i32 0, i32 0, null, i32 257, i1 false, null, null, i32 0, metadata !87, i32 545} ; [ DW_TAG_subprogram ]
!220 = metadata !{i32 786453, i32 0, metadata !"", i32 0, i32 0, i64 0, i64 0, i64 0, i32 0, null, metadata !221, i32 0, i32 0} ; [ DW_TAG_subroutine_type ]
!221 = metadata !{null, metadata !192, metadata !217, metadata !222}
!222 = metadata !{i32 786447, null, metadata !"", null, i32 0, i64 64, i64 64, i64 0, i32 0, metadata !223} ; [ DW_TAG_pointer_type ]
!223 = metadata !{i32 786470, null, metadata !"", null, i32 0, i64 0, i64 0, i64 0, i32 0, metadata !224} ; [ DW_TAG_const_type ]
!224 = metadata !{i32 786447, null, metadata !"", null, i32 0, i64 64, i64 64, i64 0, i32 0, metadata !225} ; [ DW_TAG_pointer_type ]
!225 = metadata !{i32 786470, null, metadata !"", null, i32 0, i64 0, i64 0, i64 0, i32 0, metadata !226} ; [ DW_TAG_const_type ]
!226 = metadata !{i32 786434, metadata !114, metadata !"id", metadata !116, i32 431, i64 64, i64 64, i32 0, i32 0, null, metadata !227, i32 0, null, null} ; [ DW_TAG_class_type ]
!227 = metadata !{metadata !228, metadata !229, metadata !234, metadata !235, metadata !238, metadata !242, metadata !243}
!228 = metadata !{i32 786445, metadata !226, metadata !"_M_index", metadata !116, i32 448, i64 64, i64 64, i64 0, i32 1, metadata !138} ; [ DW_TAG_member ]
!229 = metadata !{i32 786478, i32 0, metadata !226, metadata !"operator=", metadata !"operator=", metadata !"_ZNSt6locale2idaSERKS0_", metadata !116, i32 454, metadata !230, i1 false, i1 false, i32 0, i32 0, null, i32 257, i1 false, null, null, i32 0, metadata !87, i32 454} ; [ DW_TAG_subprogram ]
!230 = metadata !{i32 786453, i32 0, metadata !"", i32 0, i32 0, i64 0, i64 0, i64 0, i32 0, null, metadata !231, i32 0, i32 0} ; [ DW_TAG_subroutine_type ]
!231 = metadata !{null, metadata !232, metadata !233}
!232 = metadata !{i32 786447, i32 0, metadata !"", i32 0, i32 0, i64 64, i64 64, i64 0, i32 64, metadata !226} ; [ DW_TAG_pointer_type ]
!233 = metadata !{i32 786448, null, null, null, i32 0, i64 0, i64 0, i64 0, i32 0, metadata !225} ; [ DW_TAG_reference_type ]
!234 = metadata !{i32 786478, i32 0, metadata !226, metadata !"id", metadata !"id", metadata !"", metadata !116, i32 456, metadata !230, i1 false, i1 false, i32 0, i32 0, null, i32 257, i1 false, null, null, i32 0, metadata !87, i32 456} ; [ DW_TAG_subprogram ]
!235 = metadata !{i32 786478, i32 0, metadata !226, metadata !"id", metadata !"id", metadata !"", metadata !116, i32 462, metadata !236, i1 false, i1 false, i32 0, i32 0, null, i32 256, i1 false, null, null, i32 0, metadata !87, i32 462} ; [ DW_TAG_subprogram ]
!236 = metadata !{i32 786453, i32 0, metadata !"", i32 0, i32 0, i64 0, i64 0, i64 0, i32 0, null, metadata !237, i32 0, i32 0} ; [ DW_TAG_subroutine_type ]
!237 = metadata !{null, metadata !232}
!238 = metadata !{i32 786478, i32 0, metadata !226, metadata !"_M_id", metadata !"_M_id", metadata !"_ZNKSt6locale2id5_M_idEv", metadata !116, i32 465, metadata !239, i1 false, i1 false, i32 0, i32 0, null, i32 256, i1 false, null, null, i32 0, metadata !87, i32 465} ; [ DW_TAG_subprogram ]
!239 = metadata !{i32 786453, i32 0, metadata !"", i32 0, i32 0, i64 0, i64 0, i64 0, i32 0, null, metadata !240, i32 0, i32 0} ; [ DW_TAG_subroutine_type ]
!240 = metadata !{metadata !138, metadata !241}
!241 = metadata !{i32 786447, i32 0, metadata !"", i32 0, i32 0, i64 64, i64 64, i64 0, i32 64, metadata !225} ; [ DW_TAG_pointer_type ]
!242 = metadata !{i32 786474, metadata !226, null, metadata !116, i32 0, i64 0, i64 0, i64 0, i32 0, metadata !120} ; [ DW_TAG_friend ]
!243 = metadata !{i32 786474, metadata !226, null, metadata !116, i32 0, i64 0, i64 0, i64 0, i32 0, metadata !114} ; [ DW_TAG_friend ]
!244 = metadata !{i32 786478, i32 0, metadata !120, metadata !"_M_replace_facet", metadata !"_M_replace_facet", metadata !"_ZNSt6locale5_Impl16_M_replace_facetEPKS0_PKNS_2idE", metadata !116, i32 548, metadata !245, i1 false, i1 false, i32 0, i32 0, null, i32 257, i1 false, null, null, i32 0, metadata !87, i32 548} ; [ DW_TAG_subprogram ]
!245 = metadata !{i32 786453, i32 0, metadata !"", i32 0, i32 0, i64 0, i64 0, i64 0, i32 0, null, metadata !246, i32 0, i32 0} ; [ DW_TAG_subroutine_type ]
!246 = metadata !{null, metadata !192, metadata !217, metadata !224}
!247 = metadata !{i32 786478, i32 0, metadata !120, metadata !"_M_install_facet", metadata !"_M_install_facet", metadata !"_ZNSt6locale5_Impl16_M_install_facetEPKNS_2idEPKNS_5facetE", metadata !116, i32 551, metadata !248, i1 false, i1 false, i32 0, i32 0, null, i32 257, i1 false, null, null, i32 0, metadata !87, i32 551} ; [ DW_TAG_subprogram ]
!248 = metadata !{i32 786453, i32 0, metadata !"", i32 0, i32 0, i64 0, i64 0, i64 0, i32 0, null, metadata !249, i32 0, i32 0} ; [ DW_TAG_subroutine_type ]
!249 = metadata !{null, metadata !192, metadata !224, metadata !125}
!250 = metadata !{i32 786478, i32 0, metadata !120, metadata !"_M_install_cache", metadata !"_M_install_cache", metadata !"_ZNSt6locale5_Impl16_M_install_cacheEPKNS_5facetEy", metadata !116, i32 559, metadata !251, i1 false, i1 false, i32 0, i32 0, null, i32 257, i1 false, null, null, i32 0, metadata !87, i32 559} ; [ DW_TAG_subprogram ]
!251 = metadata !{i32 786453, i32 0, metadata !"", i32 0, i32 0, i64 0, i64 0, i64 0, i32 0, null, metadata !252, i32 0, i32 0} ; [ DW_TAG_subroutine_type ]
!252 = metadata !{null, metadata !192, metadata !125, metadata !138}
!253 = metadata !{i32 786474, metadata !120, null, metadata !116, i32 0, i64 0, i64 0, i64 0, i32 0, metadata !127} ; [ DW_TAG_friend ]
!254 = metadata !{i32 786474, metadata !120, null, metadata !116, i32 0, i64 0, i64 0, i64 0, i32 0, metadata !114} ; [ DW_TAG_friend ]
!255 = metadata !{i32 786478, i32 0, metadata !114, metadata !"locale", metadata !"locale", metadata !"", metadata !116, i32 116, metadata !256, i1 false, i1 false, i32 0, i32 0, null, i32 256, i1 false, null, null, i32 0, metadata !87, i32 116} ; [ DW_TAG_subprogram ]
!256 = metadata !{i32 786453, i32 0, metadata !"", i32 0, i32 0, i64 0, i64 0, i64 0, i32 0, null, metadata !257, i32 0, i32 0} ; [ DW_TAG_subroutine_type ]
!257 = metadata !{null, metadata !258}
!258 = metadata !{i32 786447, i32 0, metadata !"", i32 0, i32 0, i64 64, i64 64, i64 0, i32 64, metadata !114} ; [ DW_TAG_pointer_type ]
!259 = metadata !{i32 786478, i32 0, metadata !114, metadata !"locale", metadata !"locale", metadata !"", metadata !116, i32 125, metadata !260, i1 false, i1 false, i32 0, i32 0, null, i32 256, i1 false, null, null, i32 0, metadata !87, i32 125} ; [ DW_TAG_subprogram ]
!260 = metadata !{i32 786453, i32 0, metadata !"", i32 0, i32 0, i64 0, i64 0, i64 0, i32 0, null, metadata !261, i32 0, i32 0} ; [ DW_TAG_subroutine_type ]
!261 = metadata !{null, metadata !258, metadata !262}
!262 = metadata !{i32 786448, null, null, null, i32 0, i64 0, i64 0, i64 0, i32 0, metadata !263} ; [ DW_TAG_reference_type ]
!263 = metadata !{i32 786470, null, metadata !"", null, i32 0, i64 0, i64 0, i64 0, i32 0, metadata !114} ; [ DW_TAG_const_type ]
!264 = metadata !{i32 786478, i32 0, metadata !114, metadata !"locale", metadata !"locale", metadata !"", metadata !116, i32 136, metadata !265, i1 false, i1 false, i32 0, i32 0, null, i32 384, i1 false, null, null, i32 0, metadata !87, i32 136} ; [ DW_TAG_subprogram ]
!265 = metadata !{i32 786453, i32 0, metadata !"", i32 0, i32 0, i64 0, i64 0, i64 0, i32 0, null, metadata !266, i32 0, i32 0} ; [ DW_TAG_subroutine_type ]
!266 = metadata !{null, metadata !258, metadata !151}
!267 = metadata !{i32 786478, i32 0, metadata !114, metadata !"locale", metadata !"locale", metadata !"", metadata !116, i32 150, metadata !268, i1 false, i1 false, i32 0, i32 0, null, i32 256, i1 false, null, null, i32 0, metadata !87, i32 150} ; [ DW_TAG_subprogram ]
!268 = metadata !{i32 786453, i32 0, metadata !"", i32 0, i32 0, i64 0, i64 0, i64 0, i32 0, null, metadata !269, i32 0, i32 0} ; [ DW_TAG_subroutine_type ]
!269 = metadata !{null, metadata !258, metadata !262, metadata !151, metadata !218}
!270 = metadata !{i32 786478, i32 0, metadata !114, metadata !"locale", metadata !"locale", metadata !"", metadata !116, i32 163, metadata !271, i1 false, i1 false, i32 0, i32 0, null, i32 256, i1 false, null, null, i32 0, metadata !87, i32 163} ; [ DW_TAG_subprogram ]
!271 = metadata !{i32 786453, i32 0, metadata !"", i32 0, i32 0, i64 0, i64 0, i64 0, i32 0, null, metadata !272, i32 0, i32 0} ; [ DW_TAG_subroutine_type ]
!272 = metadata !{null, metadata !258, metadata !262, metadata !262, metadata !218}
!273 = metadata !{i32 786478, i32 0, metadata !114, metadata !"~locale", metadata !"~locale", metadata !"", metadata !116, i32 179, metadata !256, i1 false, i1 false, i32 0, i32 0, null, i32 256, i1 false, null, null, i32 0, metadata !87, i32 179} ; [ DW_TAG_subprogram ]
!274 = metadata !{i32 786478, i32 0, metadata !114, metadata !"operator=", metadata !"operator=", metadata !"_ZNSt6localeaSERKS_", metadata !116, i32 190, metadata !275, i1 false, i1 false, i32 0, i32 0, null, i32 256, i1 false, null, null, i32 0, metadata !87, i32 190} ; [ DW_TAG_subprogram ]
!275 = metadata !{i32 786453, i32 0, metadata !"", i32 0, i32 0, i64 0, i64 0, i64 0, i32 0, null, metadata !276, i32 0, i32 0} ; [ DW_TAG_subroutine_type ]
!276 = metadata !{metadata !262, metadata !258, metadata !262}
!277 = metadata !{i32 786478, i32 0, metadata !114, metadata !"name", metadata !"name", metadata !"_ZNKSt6locale4nameEv", metadata !116, i32 214, metadata !278, i1 false, i1 false, i32 0, i32 0, null, i32 256, i1 false, null, null, i32 0, metadata !87, i32 214} ; [ DW_TAG_subprogram ]
!278 = metadata !{i32 786453, i32 0, metadata !"", i32 0, i32 0, i64 0, i64 0, i64 0, i32 0, null, metadata !279, i32 0, i32 0} ; [ DW_TAG_subroutine_type ]
!279 = metadata !{metadata !280, metadata !771}
!280 = metadata !{i32 786454, metadata !281, metadata !"string", metadata !116, i32 62, i64 0, i64 0, i64 0, i32 0, metadata !283} ; [ DW_TAG_typedef ]
!281 = metadata !{i32 786489, null, metadata !"std", metadata !282, i32 42} ; [ DW_TAG_namespace ]
!282 = metadata !{i32 786473, metadata !"C:/Xilinx/Vivado/2017.4/win64/tools/clang/bin\5C..\5Clib\5Cclang\5C3.1/../../../include/c++/4.5.2\5Cbits/stringfwd.h", metadata !"C:\5CUsers\5Czisk\5CDesktop\5C2", null} ; [ DW_TAG_file_type ]
!283 = metadata !{i32 786434, metadata !281, metadata !"basic_string<char>", metadata !284, i32 1132, i64 64, i64 64, i32 0, i32 0, null, metadata !285, i32 0, null, metadata !715} ; [ DW_TAG_class_type ]
!284 = metadata !{i32 786473, metadata !"C:/Xilinx/Vivado/2017.4/win64/tools/clang/bin\5C..\5Clib\5Cclang\5C3.1/../../../include/c++/4.5.2\5Cbits/basic_string.tcc", metadata !"C:\5CUsers\5Czisk\5CDesktop\5C2", null} ; [ DW_TAG_file_type ]
!285 = metadata !{metadata !286, metadata !359, metadata !364, metadata !368, metadata !417, metadata !423, metadata !424, metadata !427, metadata !430, metadata !433, metadata !436, metadata !439, metadata !442, metadata !443, metadata !446, metadata !449, metadata !454, metadata !457, metadata !460, metadata !463, metadata !466, metadata !467, metadata !468, metadata !469, metadata !472, metadata !476, metadata !479, metadata !482, metadata !485, metadata !488, metadata !491, metadata !492, metadata !496, metadata !499, metadata !502, metadata !505, metadata !508, metadata !509, metadata !510, metadata !515, metadata !520, metadata !521, metadata !522, metadata !525, metadata !526, metadata !527, metadata !530, metadata !533, metadata !534, metadata !535, metadata !536, metadata !539, metadata !544, metadata !549, metadata !550, metadata !551, metadata !552, metadata !553, metadata !554, metadata !555, metadata !558, metadata !561, metadata !562, metadata !565, metadata !568, metadata !569, metadata !570, metadata !571, metadata !572, metadata !573, metadata !576, metadata !579, metadata !582, metadata !585, metadata !588, metadata !591, metadata !594, metadata !597, metadata !600, metadata !603, metadata !606, metadata !609, metadata !612, metadata !615, metadata !618, metadata !621, metadata !624, metadata !627, metadata !630, metadata !633, metadata !636, metadata !639, metadata !642, metadata !643, metadata !644, metadata !647, metadata !648, metadata !651, metadata !654, metadata !657, metadata !658, metadata !662, metadata !665, metadata !668, metadata !671, metadata !674, metadata !675, metadata !676, metadata !677, metadata !678, metadata !679, metadata !680, metadata !681, metadata !682, metadata !683, metadata !684, metadata !685, metadata !686, metadata !687, metadata !688, metadata !689, metadata !690, metadata !691, metadata !692, metadata !693, metadata !694, metadata !697, metadata !700, metadata !703, metadata !706, metadata !709, metadata !712}
!286 = metadata !{i32 786445, metadata !283, metadata !"_M_dataplus", metadata !287, i32 274, i64 64, i64 64, i64 0, i32 1, metadata !288} ; [ DW_TAG_member ]
!287 = metadata !{i32 786473, metadata !"C:/Xilinx/Vivado/2017.4/win64/tools/clang/bin\5C..\5Clib\5Cclang\5C3.1/../../../include/c++/4.5.2\5Cbits/basic_string.h", metadata !"C:\5CUsers\5Czisk\5CDesktop\5C2", null} ; [ DW_TAG_file_type ]
!288 = metadata !{i32 786434, metadata !283, metadata !"_Alloc_hider", metadata !287, i32 257, i64 64, i64 64, i32 0, i32 0, null, metadata !289, i32 0, null, null} ; [ DW_TAG_class_type ]
!289 = metadata !{metadata !290, metadata !354, metadata !355}
!290 = metadata !{i32 786460, metadata !288, null, metadata !287, i32 0, i64 0, i64 0, i64 0, i32 0, metadata !291} ; [ DW_TAG_inheritance ]
!291 = metadata !{i32 786434, metadata !281, metadata !"allocator<char>", metadata !292, i32 138, i64 8, i64 8, i32 0, i32 0, null, metadata !293, i32 0, null, metadata !352} ; [ DW_TAG_class_type ]
!292 = metadata !{i32 786473, metadata !"C:/Xilinx/Vivado/2017.4/win64/tools/clang/bin\5C..\5Clib\5Cclang\5C3.1/../../../include/c++/4.5.2\5Cbits/allocator.h", metadata !"C:\5CUsers\5Czisk\5CDesktop\5C2", null} ; [ DW_TAG_file_type ]
!293 = metadata !{metadata !294, metadata !342, metadata !346, metadata !351}
!294 = metadata !{i32 786460, metadata !291, null, metadata !292, i32 0, i64 0, i64 0, i64 0, i32 0, metadata !295} ; [ DW_TAG_inheritance ]
!295 = metadata !{i32 786434, metadata !296, metadata !"new_allocator<char>", metadata !297, i32 51, i64 8, i64 8, i32 0, i32 0, null, metadata !298, i32 0, null, metadata !340} ; [ DW_TAG_class_type ]
!296 = metadata !{i32 786489, null, metadata !"__gnu_cxx", metadata !297, i32 37} ; [ DW_TAG_namespace ]
!297 = metadata !{i32 786473, metadata !"C:/Xilinx/Vivado/2017.4/win64/tools/clang/bin\5C..\5Clib\5Cclang\5C3.1/../../../include/c++/4.5.2\5Cext/new_allocator.h", metadata !"C:\5CUsers\5Czisk\5CDesktop\5C2", null} ; [ DW_TAG_file_type ]
!298 = metadata !{metadata !299, metadata !303, metadata !308, metadata !309, metadata !316, metadata !322, metadata !328, metadata !331, metadata !334, metadata !337}
!299 = metadata !{i32 786478, i32 0, metadata !295, metadata !"new_allocator", metadata !"new_allocator", metadata !"", metadata !297, i32 66, metadata !300, i1 false, i1 false, i32 0, i32 0, null, i32 256, i1 false, null, null, i32 0, metadata !87, i32 66} ; [ DW_TAG_subprogram ]
!300 = metadata !{i32 786453, i32 0, metadata !"", i32 0, i32 0, i64 0, i64 0, i64 0, i32 0, null, metadata !301, i32 0, i32 0} ; [ DW_TAG_subroutine_type ]
!301 = metadata !{null, metadata !302}
!302 = metadata !{i32 786447, i32 0, metadata !"", i32 0, i32 0, i64 64, i64 64, i64 0, i32 64, metadata !295} ; [ DW_TAG_pointer_type ]
!303 = metadata !{i32 786478, i32 0, metadata !295, metadata !"new_allocator", metadata !"new_allocator", metadata !"", metadata !297, i32 68, metadata !304, i1 false, i1 false, i32 0, i32 0, null, i32 256, i1 false, null, null, i32 0, metadata !87, i32 68} ; [ DW_TAG_subprogram ]
!304 = metadata !{i32 786453, i32 0, metadata !"", i32 0, i32 0, i64 0, i64 0, i64 0, i32 0, null, metadata !305, i32 0, i32 0} ; [ DW_TAG_subroutine_type ]
!305 = metadata !{null, metadata !302, metadata !306}
!306 = metadata !{i32 786448, null, null, null, i32 0, i64 0, i64 0, i64 0, i32 0, metadata !307} ; [ DW_TAG_reference_type ]
!307 = metadata !{i32 786470, null, metadata !"", null, i32 0, i64 0, i64 0, i64 0, i32 0, metadata !295} ; [ DW_TAG_const_type ]
!308 = metadata !{i32 786478, i32 0, metadata !295, metadata !"~new_allocator", metadata !"~new_allocator", metadata !"", metadata !297, i32 73, metadata !300, i1 false, i1 false, i32 0, i32 0, null, i32 256, i1 false, null, null, i32 0, metadata !87, i32 73} ; [ DW_TAG_subprogram ]
!309 = metadata !{i32 786478, i32 0, metadata !295, metadata !"address", metadata !"address", metadata !"_ZNK9__gnu_cxx13new_allocatorIcE7addressERc", metadata !297, i32 76, metadata !310, i1 false, i1 false, i32 0, i32 0, null, i32 256, i1 false, null, null, i32 0, metadata !87, i32 76} ; [ DW_TAG_subprogram ]
!310 = metadata !{i32 786453, i32 0, metadata !"", i32 0, i32 0, i64 0, i64 0, i64 0, i32 0, null, metadata !311, i32 0, i32 0} ; [ DW_TAG_subroutine_type ]
!311 = metadata !{metadata !312, metadata !313, metadata !314}
!312 = metadata !{i32 786454, metadata !295, metadata !"pointer", metadata !297, i32 56, i64 0, i64 0, i64 0, i32 0, metadata !188} ; [ DW_TAG_typedef ]
!313 = metadata !{i32 786447, i32 0, metadata !"", i32 0, i32 0, i64 64, i64 64, i64 0, i32 64, metadata !307} ; [ DW_TAG_pointer_type ]
!314 = metadata !{i32 786454, metadata !295, metadata !"reference", metadata !297, i32 58, i64 0, i64 0, i64 0, i32 0, metadata !315} ; [ DW_TAG_typedef ]
!315 = metadata !{i32 786448, null, null, null, i32 0, i64 0, i64 0, i64 0, i32 0, metadata !153} ; [ DW_TAG_reference_type ]
!316 = metadata !{i32 786478, i32 0, metadata !295, metadata !"address", metadata !"address", metadata !"_ZNK9__gnu_cxx13new_allocatorIcE7addressERKc", metadata !297, i32 79, metadata !317, i1 false, i1 false, i32 0, i32 0, null, i32 256, i1 false, null, null, i32 0, metadata !87, i32 79} ; [ DW_TAG_subprogram ]
!317 = metadata !{i32 786453, i32 0, metadata !"", i32 0, i32 0, i64 0, i64 0, i64 0, i32 0, null, metadata !318, i32 0, i32 0} ; [ DW_TAG_subroutine_type ]
!318 = metadata !{metadata !319, metadata !313, metadata !320}
!319 = metadata !{i32 786454, metadata !295, metadata !"const_pointer", metadata !297, i32 57, i64 0, i64 0, i64 0, i32 0, metadata !151} ; [ DW_TAG_typedef ]
!320 = metadata !{i32 786454, metadata !295, metadata !"const_reference", metadata !297, i32 59, i64 0, i64 0, i64 0, i32 0, metadata !321} ; [ DW_TAG_typedef ]
!321 = metadata !{i32 786448, null, null, null, i32 0, i64 0, i64 0, i64 0, i32 0, metadata !152} ; [ DW_TAG_reference_type ]
!322 = metadata !{i32 786478, i32 0, metadata !295, metadata !"allocate", metadata !"allocate", metadata !"_ZN9__gnu_cxx13new_allocatorIcE8allocateEyPKv", metadata !297, i32 84, metadata !323, i1 false, i1 false, i32 0, i32 0, null, i32 256, i1 false, null, null, i32 0, metadata !87, i32 84} ; [ DW_TAG_subprogram ]
!323 = metadata !{i32 786453, i32 0, metadata !"", i32 0, i32 0, i64 0, i64 0, i64 0, i32 0, null, metadata !324, i32 0, i32 0} ; [ DW_TAG_subroutine_type ]
!324 = metadata !{metadata !312, metadata !302, metadata !325, metadata !326}
!325 = metadata !{i32 786454, null, metadata !"size_type", metadata !297, i32 54, i64 0, i64 0, i64 0, i32 0, metadata !138} ; [ DW_TAG_typedef ]
!326 = metadata !{i32 786447, null, metadata !"", null, i32 0, i64 64, i64 64, i64 0, i32 0, metadata !327} ; [ DW_TAG_pointer_type ]
!327 = metadata !{i32 786470, null, metadata !"", null, i32 0, i64 0, i64 0, i64 0, i32 0, null} ; [ DW_TAG_const_type ]
!328 = metadata !{i32 786478, i32 0, metadata !295, metadata !"deallocate", metadata !"deallocate", metadata !"_ZN9__gnu_cxx13new_allocatorIcE10deallocateEPcy", metadata !297, i32 94, metadata !329, i1 false, i1 false, i32 0, i32 0, null, i32 256, i1 false, null, null, i32 0, metadata !87, i32 94} ; [ DW_TAG_subprogram ]
!329 = metadata !{i32 786453, i32 0, metadata !"", i32 0, i32 0, i64 0, i64 0, i64 0, i32 0, null, metadata !330, i32 0, i32 0} ; [ DW_TAG_subroutine_type ]
!330 = metadata !{null, metadata !302, metadata !312, metadata !325}
!331 = metadata !{i32 786478, i32 0, metadata !295, metadata !"max_size", metadata !"max_size", metadata !"_ZNK9__gnu_cxx13new_allocatorIcE8max_sizeEv", metadata !297, i32 98, metadata !332, i1 false, i1 false, i32 0, i32 0, null, i32 256, i1 false, null, null, i32 0, metadata !87, i32 98} ; [ DW_TAG_subprogram ]
!332 = metadata !{i32 786453, i32 0, metadata !"", i32 0, i32 0, i64 0, i64 0, i64 0, i32 0, null, metadata !333, i32 0, i32 0} ; [ DW_TAG_subroutine_type ]
!333 = metadata !{metadata !325, metadata !313}
!334 = metadata !{i32 786478, i32 0, metadata !295, metadata !"construct", metadata !"construct", metadata !"_ZN9__gnu_cxx13new_allocatorIcE9constructEPcRKc", metadata !297, i32 104, metadata !335, i1 false, i1 false, i32 0, i32 0, null, i32 256, i1 false, null, null, i32 0, metadata !87, i32 104} ; [ DW_TAG_subprogram ]
!335 = metadata !{i32 786453, i32 0, metadata !"", i32 0, i32 0, i64 0, i64 0, i64 0, i32 0, null, metadata !336, i32 0, i32 0} ; [ DW_TAG_subroutine_type ]
!336 = metadata !{null, metadata !302, metadata !312, metadata !321}
!337 = metadata !{i32 786478, i32 0, metadata !295, metadata !"destroy", metadata !"destroy", metadata !"_ZN9__gnu_cxx13new_allocatorIcE7destroyEPc", metadata !297, i32 115, metadata !338, i1 false, i1 false, i32 0, i32 0, null, i32 256, i1 false, null, null, i32 0, metadata !87, i32 115} ; [ DW_TAG_subprogram ]
!338 = metadata !{i32 786453, i32 0, metadata !"", i32 0, i32 0, i64 0, i64 0, i64 0, i32 0, null, metadata !339, i32 0, i32 0} ; [ DW_TAG_subroutine_type ]
!339 = metadata !{null, metadata !302, metadata !312}
!340 = metadata !{metadata !341}
!341 = metadata !{i32 786479, null, metadata !"_Tp", metadata !153, null, i32 0, i32 0} ; [ DW_TAG_template_type_parameter ]
!342 = metadata !{i32 786478, i32 0, metadata !291, metadata !"allocator", metadata !"allocator", metadata !"", metadata !292, i32 101, metadata !343, i1 false, i1 false, i32 0, i32 0, null, i32 256, i1 false, null, null, i32 0, metadata !87, i32 101} ; [ DW_TAG_subprogram ]
!343 = metadata !{i32 786453, i32 0, metadata !"", i32 0, i32 0, i64 0, i64 0, i64 0, i32 0, null, metadata !344, i32 0, i32 0} ; [ DW_TAG_subroutine_type ]
!344 = metadata !{null, metadata !345}
!345 = metadata !{i32 786447, i32 0, metadata !"", i32 0, i32 0, i64 64, i64 64, i64 0, i32 64, metadata !291} ; [ DW_TAG_pointer_type ]
!346 = metadata !{i32 786478, i32 0, metadata !291, metadata !"allocator", metadata !"allocator", metadata !"", metadata !292, i32 103, metadata !347, i1 false, i1 false, i32 0, i32 0, null, i32 256, i1 false, null, null, i32 0, metadata !87, i32 103} ; [ DW_TAG_subprogram ]
!347 = metadata !{i32 786453, i32 0, metadata !"", i32 0, i32 0, i64 0, i64 0, i64 0, i32 0, null, metadata !348, i32 0, i32 0} ; [ DW_TAG_subroutine_type ]
!348 = metadata !{null, metadata !345, metadata !349}
!349 = metadata !{i32 786448, null, null, null, i32 0, i64 0, i64 0, i64 0, i32 0, metadata !350} ; [ DW_TAG_reference_type ]
!350 = metadata !{i32 786470, null, metadata !"", null, i32 0, i64 0, i64 0, i64 0, i32 0, metadata !291} ; [ DW_TAG_const_type ]
!351 = metadata !{i32 786478, i32 0, metadata !291, metadata !"~allocator", metadata !"~allocator", metadata !"", metadata !292, i32 109, metadata !343, i1 false, i1 false, i32 0, i32 0, null, i32 256, i1 false, null, null, i32 0, metadata !87, i32 109} ; [ DW_TAG_subprogram ]
!352 = metadata !{metadata !353}
!353 = metadata !{i32 786479, null, metadata !"_Alloc", metadata !153, null, i32 0, i32 0} ; [ DW_TAG_template_type_parameter ]
!354 = metadata !{i32 786445, metadata !288, metadata !"_M_p", metadata !287, i32 262, i64 64, i64 64, i64 0, i32 0, metadata !188} ; [ DW_TAG_member ]
!355 = metadata !{i32 786478, i32 0, metadata !288, metadata !"_Alloc_hider", metadata !"_Alloc_hider", metadata !"", metadata !287, i32 259, metadata !356, i1 false, i1 false, i32 0, i32 0, null, i32 256, i1 false, null, null, i32 0, metadata !87, i32 259} ; [ DW_TAG_subprogram ]
!356 = metadata !{i32 786453, i32 0, metadata !"", i32 0, i32 0, i64 0, i64 0, i64 0, i32 0, null, metadata !357, i32 0, i32 0} ; [ DW_TAG_subroutine_type ]
!357 = metadata !{null, metadata !358, metadata !188, metadata !349}
!358 = metadata !{i32 786447, i32 0, metadata !"", i32 0, i32 0, i64 64, i64 64, i64 0, i32 64, metadata !288} ; [ DW_TAG_pointer_type ]
!359 = metadata !{i32 786478, i32 0, metadata !283, metadata !"_M_data", metadata !"_M_data", metadata !"_ZNKSs7_M_dataEv", metadata !287, i32 277, metadata !360, i1 false, i1 false, i32 0, i32 0, null, i32 257, i1 false, null, null, i32 0, metadata !87, i32 277} ; [ DW_TAG_subprogram ]
!360 = metadata !{i32 786453, i32 0, metadata !"", i32 0, i32 0, i64 0, i64 0, i64 0, i32 0, null, metadata !361, i32 0, i32 0} ; [ DW_TAG_subroutine_type ]
!361 = metadata !{metadata !188, metadata !362}
!362 = metadata !{i32 786447, i32 0, metadata !"", i32 0, i32 0, i64 64, i64 64, i64 0, i32 64, metadata !363} ; [ DW_TAG_pointer_type ]
!363 = metadata !{i32 786470, null, metadata !"", null, i32 0, i64 0, i64 0, i64 0, i32 0, metadata !283} ; [ DW_TAG_const_type ]
!364 = metadata !{i32 786478, i32 0, metadata !283, metadata !"_M_data", metadata !"_M_data", metadata !"_ZNSs7_M_dataEPc", metadata !287, i32 281, metadata !365, i1 false, i1 false, i32 0, i32 0, null, i32 257, i1 false, null, null, i32 0, metadata !87, i32 281} ; [ DW_TAG_subprogram ]
!365 = metadata !{i32 786453, i32 0, metadata !"", i32 0, i32 0, i64 0, i64 0, i64 0, i32 0, null, metadata !366, i32 0, i32 0} ; [ DW_TAG_subroutine_type ]
!366 = metadata !{metadata !188, metadata !367, metadata !188}
!367 = metadata !{i32 786447, i32 0, metadata !"", i32 0, i32 0, i64 64, i64 64, i64 0, i32 64, metadata !283} ; [ DW_TAG_pointer_type ]
!368 = metadata !{i32 786478, i32 0, metadata !283, metadata !"_M_rep", metadata !"_M_rep", metadata !"_ZNKSs6_M_repEv", metadata !287, i32 285, metadata !369, i1 false, i1 false, i32 0, i32 0, null, i32 257, i1 false, null, null, i32 0, metadata !87, i32 285} ; [ DW_TAG_subprogram ]
!369 = metadata !{i32 786453, i32 0, metadata !"", i32 0, i32 0, i64 0, i64 0, i64 0, i32 0, null, metadata !370, i32 0, i32 0} ; [ DW_TAG_subroutine_type ]
!370 = metadata !{metadata !371, metadata !362}
!371 = metadata !{i32 786447, null, metadata !"", null, i32 0, i64 64, i64 64, i64 0, i32 0, metadata !372} ; [ DW_TAG_pointer_type ]
!372 = metadata !{i32 786434, metadata !283, metadata !"_Rep", metadata !287, i32 147, i64 192, i64 64, i32 0, i32 0, null, metadata !373, i32 0, null, null} ; [ DW_TAG_class_type ]
!373 = metadata !{metadata !374, metadata !382, metadata !386, metadata !391, metadata !392, metadata !396, metadata !397, metadata !400, metadata !403, metadata !406, metadata !409, metadata !412, metadata !413, metadata !414}
!374 = metadata !{i32 786460, metadata !372, null, metadata !287, i32 0, i64 0, i64 0, i64 0, i32 0, metadata !375} ; [ DW_TAG_inheritance ]
!375 = metadata !{i32 786434, metadata !283, metadata !"_Rep_base", metadata !287, i32 140, i64 192, i64 64, i32 0, i32 0, null, metadata !376, i32 0, null, null} ; [ DW_TAG_class_type ]
!376 = metadata !{metadata !377, metadata !380, metadata !381}
!377 = metadata !{i32 786445, metadata !375, metadata !"_M_length", metadata !287, i32 142, i64 64, i64 64, i64 0, i32 0, metadata !378} ; [ DW_TAG_member ]
!378 = metadata !{i32 786454, metadata !283, metadata !"size_type", metadata !287, i32 113, i64 0, i64 0, i64 0, i32 0, metadata !379} ; [ DW_TAG_typedef ]
!379 = metadata !{i32 786454, metadata !291, metadata !"size_type", metadata !287, i32 89, i64 0, i64 0, i64 0, i32 0, metadata !138} ; [ DW_TAG_typedef ]
!380 = metadata !{i32 786445, metadata !375, metadata !"_M_capacity", metadata !287, i32 143, i64 64, i64 64, i64 64, i32 0, metadata !378} ; [ DW_TAG_member ]
!381 = metadata !{i32 786445, metadata !375, metadata !"_M_refcount", metadata !287, i32 144, i64 32, i64 32, i64 128, i32 0, metadata !82} ; [ DW_TAG_member ]
!382 = metadata !{i32 786478, i32 0, metadata !372, metadata !"_S_empty_rep", metadata !"_S_empty_rep", metadata !"_ZNSs4_Rep12_S_empty_repEv", metadata !287, i32 173, metadata !383, i1 false, i1 false, i32 0, i32 0, null, i32 256, i1 false, null, null, i32 0, metadata !87, i32 173} ; [ DW_TAG_subprogram ]
!383 = metadata !{i32 786453, i32 0, metadata !"", i32 0, i32 0, i64 0, i64 0, i64 0, i32 0, null, metadata !384, i32 0, i32 0} ; [ DW_TAG_subroutine_type ]
!384 = metadata !{metadata !385}
!385 = metadata !{i32 786448, null, null, null, i32 0, i64 0, i64 0, i64 0, i32 0, metadata !372} ; [ DW_TAG_reference_type ]
!386 = metadata !{i32 786478, i32 0, metadata !372, metadata !"_M_is_leaked", metadata !"_M_is_leaked", metadata !"_ZNKSs4_Rep12_M_is_leakedEv", metadata !287, i32 183, metadata !387, i1 false, i1 false, i32 0, i32 0, null, i32 256, i1 false, null, null, i32 0, metadata !87, i32 183} ; [ DW_TAG_subprogram ]
!387 = metadata !{i32 786453, i32 0, metadata !"", i32 0, i32 0, i64 0, i64 0, i64 0, i32 0, null, metadata !388, i32 0, i32 0} ; [ DW_TAG_subroutine_type ]
!388 = metadata !{metadata !213, metadata !389}
!389 = metadata !{i32 786447, i32 0, metadata !"", i32 0, i32 0, i64 64, i64 64, i64 0, i32 64, metadata !390} ; [ DW_TAG_pointer_type ]
!390 = metadata !{i32 786470, null, metadata !"", null, i32 0, i64 0, i64 0, i64 0, i32 0, metadata !372} ; [ DW_TAG_const_type ]
!391 = metadata !{i32 786478, i32 0, metadata !372, metadata !"_M_is_shared", metadata !"_M_is_shared", metadata !"_ZNKSs4_Rep12_M_is_sharedEv", metadata !287, i32 187, metadata !387, i1 false, i1 false, i32 0, i32 0, null, i32 256, i1 false, null, null, i32 0, metadata !87, i32 187} ; [ DW_TAG_subprogram ]
!392 = metadata !{i32 786478, i32 0, metadata !372, metadata !"_M_set_leaked", metadata !"_M_set_leaked", metadata !"_ZNSs4_Rep13_M_set_leakedEv", metadata !287, i32 191, metadata !393, i1 false, i1 false, i32 0, i32 0, null, i32 256, i1 false, null, null, i32 0, metadata !87, i32 191} ; [ DW_TAG_subprogram ]
!393 = metadata !{i32 786453, i32 0, metadata !"", i32 0, i32 0, i64 0, i64 0, i64 0, i32 0, null, metadata !394, i32 0, i32 0} ; [ DW_TAG_subroutine_type ]
!394 = metadata !{null, metadata !395}
!395 = metadata !{i32 786447, i32 0, metadata !"", i32 0, i32 0, i64 64, i64 64, i64 0, i32 64, metadata !372} ; [ DW_TAG_pointer_type ]
!396 = metadata !{i32 786478, i32 0, metadata !372, metadata !"_M_set_sharable", metadata !"_M_set_sharable", metadata !"_ZNSs4_Rep15_M_set_sharableEv", metadata !287, i32 195, metadata !393, i1 false, i1 false, i32 0, i32 0, null, i32 256, i1 false, null, null, i32 0, metadata !87, i32 195} ; [ DW_TAG_subprogram ]
!397 = metadata !{i32 786478, i32 0, metadata !372, metadata !"_M_set_length_and_sharable", metadata !"_M_set_length_and_sharable", metadata !"_ZNSs4_Rep26_M_set_length_and_sharableEy", metadata !287, i32 199, metadata !398, i1 false, i1 false, i32 0, i32 0, null, i32 256, i1 false, null, null, i32 0, metadata !87, i32 199} ; [ DW_TAG_subprogram ]
!398 = metadata !{i32 786453, i32 0, metadata !"", i32 0, i32 0, i64 0, i64 0, i64 0, i32 0, null, metadata !399, i32 0, i32 0} ; [ DW_TAG_subroutine_type ]
!399 = metadata !{null, metadata !395, metadata !378}
!400 = metadata !{i32 786478, i32 0, metadata !372, metadata !"_M_refdata", metadata !"_M_refdata", metadata !"_ZNSs4_Rep10_M_refdataEv", metadata !287, i32 214, metadata !401, i1 false, i1 false, i32 0, i32 0, null, i32 256, i1 false, null, null, i32 0, metadata !87, i32 214} ; [ DW_TAG_subprogram ]
!401 = metadata !{i32 786453, i32 0, metadata !"", i32 0, i32 0, i64 0, i64 0, i64 0, i32 0, null, metadata !402, i32 0, i32 0} ; [ DW_TAG_subroutine_type ]
!402 = metadata !{metadata !188, metadata !395}
!403 = metadata !{i32 786478, i32 0, metadata !372, metadata !"_M_grab", metadata !"_M_grab", metadata !"_ZNSs4_Rep7_M_grabERKSaIcES2_", metadata !287, i32 218, metadata !404, i1 false, i1 false, i32 0, i32 0, null, i32 256, i1 false, null, null, i32 0, metadata !87, i32 218} ; [ DW_TAG_subprogram ]
!404 = metadata !{i32 786453, i32 0, metadata !"", i32 0, i32 0, i64 0, i64 0, i64 0, i32 0, null, metadata !405, i32 0, i32 0} ; [ DW_TAG_subroutine_type ]
!405 = metadata !{metadata !188, metadata !395, metadata !349, metadata !349}
!406 = metadata !{i32 786478, i32 0, metadata !372, metadata !"_S_create", metadata !"_S_create", metadata !"_ZNSs4_Rep9_S_createEyyRKSaIcE", metadata !287, i32 226, metadata !407, i1 false, i1 false, i32 0, i32 0, null, i32 256, i1 false, null, null, i32 0, metadata !87, i32 226} ; [ DW_TAG_subprogram ]
!407 = metadata !{i32 786453, i32 0, metadata !"", i32 0, i32 0, i64 0, i64 0, i64 0, i32 0, null, metadata !408, i32 0, i32 0} ; [ DW_TAG_subroutine_type ]
!408 = metadata !{metadata !371, metadata !378, metadata !378, metadata !349}
!409 = metadata !{i32 786478, i32 0, metadata !372, metadata !"_M_dispose", metadata !"_M_dispose", metadata !"_ZNSs4_Rep10_M_disposeERKSaIcE", metadata !287, i32 229, metadata !410, i1 false, i1 false, i32 0, i32 0, null, i32 256, i1 false, null, null, i32 0, metadata !87, i32 229} ; [ DW_TAG_subprogram ]
!410 = metadata !{i32 786453, i32 0, metadata !"", i32 0, i32 0, i64 0, i64 0, i64 0, i32 0, null, metadata !411, i32 0, i32 0} ; [ DW_TAG_subroutine_type ]
!411 = metadata !{null, metadata !395, metadata !349}
!412 = metadata !{i32 786478, i32 0, metadata !372, metadata !"_M_destroy", metadata !"_M_destroy", metadata !"_ZNSs4_Rep10_M_destroyERKSaIcE", metadata !287, i32 240, metadata !410, i1 false, i1 false, i32 0, i32 0, null, i32 256, i1 false, null, null, i32 0, metadata !87, i32 240} ; [ DW_TAG_subprogram ]
!413 = metadata !{i32 786478, i32 0, metadata !372, metadata !"_M_refcopy", metadata !"_M_refcopy", metadata !"_ZNSs4_Rep10_M_refcopyEv", metadata !287, i32 243, metadata !401, i1 false, i1 false, i32 0, i32 0, null, i32 256, i1 false, null, null, i32 0, metadata !87, i32 243} ; [ DW_TAG_subprogram ]
!414 = metadata !{i32 786478, i32 0, metadata !372, metadata !"_M_clone", metadata !"_M_clone", metadata !"_ZNSs4_Rep8_M_cloneERKSaIcEy", metadata !287, i32 253, metadata !415, i1 false, i1 false, i32 0, i32 0, null, i32 256, i1 false, null, null, i32 0, metadata !87, i32 253} ; [ DW_TAG_subprogram ]
!415 = metadata !{i32 786453, i32 0, metadata !"", i32 0, i32 0, i64 0, i64 0, i64 0, i32 0, null, metadata !416, i32 0, i32 0} ; [ DW_TAG_subroutine_type ]
!416 = metadata !{metadata !188, metadata !395, metadata !349, metadata !378}
!417 = metadata !{i32 786478, i32 0, metadata !283, metadata !"_M_ibegin", metadata !"_M_ibegin", metadata !"_ZNKSs9_M_ibeginEv", metadata !287, i32 291, metadata !418, i1 false, i1 false, i32 0, i32 0, null, i32 257, i1 false, null, null, i32 0, metadata !87, i32 291} ; [ DW_TAG_subprogram ]
!418 = metadata !{i32 786453, i32 0, metadata !"", i32 0, i32 0, i64 0, i64 0, i64 0, i32 0, null, metadata !419, i32 0, i32 0} ; [ DW_TAG_subroutine_type ]
!419 = metadata !{metadata !420, metadata !362}
!420 = metadata !{i32 786454, metadata !283, metadata !"iterator", metadata !284, i32 119, i64 0, i64 0, i64 0, i32 0, metadata !421} ; [ DW_TAG_typedef ]
!421 = metadata !{i32 786434, null, metadata !"__normal_iterator<char *, std::basic_string<char> >", metadata !422, i32 697, i32 0, i32 0, i32 0, i32 4, null, null, i32 0} ; [ DW_TAG_class_type ]
!422 = metadata !{i32 786473, metadata !"C:/Xilinx/Vivado/2017.4/win64/tools/clang/bin\5C..\5Clib\5Cclang\5C3.1/../../../include/c++/4.5.2\5Cbits/stl_iterator.h", metadata !"C:\5CUsers\5Czisk\5CDesktop\5C2", null} ; [ DW_TAG_file_type ]
!423 = metadata !{i32 786478, i32 0, metadata !283, metadata !"_M_iend", metadata !"_M_iend", metadata !"_ZNKSs7_M_iendEv", metadata !287, i32 295, metadata !418, i1 false, i1 false, i32 0, i32 0, null, i32 257, i1 false, null, null, i32 0, metadata !87, i32 295} ; [ DW_TAG_subprogram ]
!424 = metadata !{i32 786478, i32 0, metadata !283, metadata !"_M_leak", metadata !"_M_leak", metadata !"_ZNSs7_M_leakEv", metadata !287, i32 299, metadata !425, i1 false, i1 false, i32 0, i32 0, null, i32 257, i1 false, null, null, i32 0, metadata !87, i32 299} ; [ DW_TAG_subprogram ]
!425 = metadata !{i32 786453, i32 0, metadata !"", i32 0, i32 0, i64 0, i64 0, i64 0, i32 0, null, metadata !426, i32 0, i32 0} ; [ DW_TAG_subroutine_type ]
!426 = metadata !{null, metadata !367}
!427 = metadata !{i32 786478, i32 0, metadata !283, metadata !"_M_check", metadata !"_M_check", metadata !"_ZNKSs8_M_checkEyPKc", metadata !287, i32 306, metadata !428, i1 false, i1 false, i32 0, i32 0, null, i32 257, i1 false, null, null, i32 0, metadata !87, i32 306} ; [ DW_TAG_subprogram ]
!428 = metadata !{i32 786453, i32 0, metadata !"", i32 0, i32 0, i64 0, i64 0, i64 0, i32 0, null, metadata !429, i32 0, i32 0} ; [ DW_TAG_subroutine_type ]
!429 = metadata !{metadata !378, metadata !362, metadata !378, metadata !151}
!430 = metadata !{i32 786478, i32 0, metadata !283, metadata !"_M_check_length", metadata !"_M_check_length", metadata !"_ZNKSs15_M_check_lengthEyyPKc", metadata !287, i32 314, metadata !431, i1 false, i1 false, i32 0, i32 0, null, i32 257, i1 false, null, null, i32 0, metadata !87, i32 314} ; [ DW_TAG_subprogram ]
!431 = metadata !{i32 786453, i32 0, metadata !"", i32 0, i32 0, i64 0, i64 0, i64 0, i32 0, null, metadata !432, i32 0, i32 0} ; [ DW_TAG_subroutine_type ]
!432 = metadata !{null, metadata !362, metadata !378, metadata !378, metadata !151}
!433 = metadata !{i32 786478, i32 0, metadata !283, metadata !"_M_limit", metadata !"_M_limit", metadata !"_ZNKSs8_M_limitEyy", metadata !287, i32 322, metadata !434, i1 false, i1 false, i32 0, i32 0, null, i32 257, i1 false, null, null, i32 0, metadata !87, i32 322} ; [ DW_TAG_subprogram ]
!434 = metadata !{i32 786453, i32 0, metadata !"", i32 0, i32 0, i64 0, i64 0, i64 0, i32 0, null, metadata !435, i32 0, i32 0} ; [ DW_TAG_subroutine_type ]
!435 = metadata !{metadata !378, metadata !362, metadata !378, metadata !378}
!436 = metadata !{i32 786478, i32 0, metadata !283, metadata !"_M_disjunct", metadata !"_M_disjunct", metadata !"_ZNKSs11_M_disjunctEPKc", metadata !287, i32 330, metadata !437, i1 false, i1 false, i32 0, i32 0, null, i32 257, i1 false, null, null, i32 0, metadata !87, i32 330} ; [ DW_TAG_subprogram ]
!437 = metadata !{i32 786453, i32 0, metadata !"", i32 0, i32 0, i64 0, i64 0, i64 0, i32 0, null, metadata !438, i32 0, i32 0} ; [ DW_TAG_subroutine_type ]
!438 = metadata !{metadata !213, metadata !362, metadata !151}
!439 = metadata !{i32 786478, i32 0, metadata !283, metadata !"_M_copy", metadata !"_M_copy", metadata !"_ZNSs7_M_copyEPcPKcy", metadata !287, i32 339, metadata !440, i1 false, i1 false, i32 0, i32 0, null, i32 257, i1 false, null, null, i32 0, metadata !87, i32 339} ; [ DW_TAG_subprogram ]
!440 = metadata !{i32 786453, i32 0, metadata !"", i32 0, i32 0, i64 0, i64 0, i64 0, i32 0, null, metadata !441, i32 0, i32 0} ; [ DW_TAG_subroutine_type ]
!441 = metadata !{null, metadata !188, metadata !151, metadata !378}
!442 = metadata !{i32 786478, i32 0, metadata !283, metadata !"_M_move", metadata !"_M_move", metadata !"_ZNSs7_M_moveEPcPKcy", metadata !287, i32 348, metadata !440, i1 false, i1 false, i32 0, i32 0, null, i32 257, i1 false, null, null, i32 0, metadata !87, i32 348} ; [ DW_TAG_subprogram ]
!443 = metadata !{i32 786478, i32 0, metadata !283, metadata !"_M_assign", metadata !"_M_assign", metadata !"_ZNSs9_M_assignEPcyc", metadata !287, i32 357, metadata !444, i1 false, i1 false, i32 0, i32 0, null, i32 257, i1 false, null, null, i32 0, metadata !87, i32 357} ; [ DW_TAG_subprogram ]
!444 = metadata !{i32 786453, i32 0, metadata !"", i32 0, i32 0, i64 0, i64 0, i64 0, i32 0, null, metadata !445, i32 0, i32 0} ; [ DW_TAG_subroutine_type ]
!445 = metadata !{null, metadata !188, metadata !378, metadata !153}
!446 = metadata !{i32 786478, i32 0, metadata !283, metadata !"_S_copy_chars", metadata !"_S_copy_chars", metadata !"_ZNSs13_S_copy_charsEPcN9__gnu_cxx17__normal_iteratorIS_SsEES2_", metadata !287, i32 376, metadata !447, i1 false, i1 false, i32 0, i32 0, null, i32 257, i1 false, null, null, i32 0, metadata !87, i32 376} ; [ DW_TAG_subprogram ]
!447 = metadata !{i32 786453, i32 0, metadata !"", i32 0, i32 0, i64 0, i64 0, i64 0, i32 0, null, metadata !448, i32 0, i32 0} ; [ DW_TAG_subroutine_type ]
!448 = metadata !{null, metadata !188, metadata !420, metadata !420}
!449 = metadata !{i32 786478, i32 0, metadata !283, metadata !"_S_copy_chars", metadata !"_S_copy_chars", metadata !"_ZNSs13_S_copy_charsEPcN9__gnu_cxx17__normal_iteratorIPKcSsEES4_", metadata !287, i32 380, metadata !450, i1 false, i1 false, i32 0, i32 0, null, i32 257, i1 false, null, null, i32 0, metadata !87, i32 380} ; [ DW_TAG_subprogram ]
!450 = metadata !{i32 786453, i32 0, metadata !"", i32 0, i32 0, i64 0, i64 0, i64 0, i32 0, null, metadata !451, i32 0, i32 0} ; [ DW_TAG_subroutine_type ]
!451 = metadata !{null, metadata !188, metadata !452, metadata !452}
!452 = metadata !{i32 786454, metadata !283, metadata !"const_iterator", metadata !284, i32 121, i64 0, i64 0, i64 0, i32 0, metadata !453} ; [ DW_TAG_typedef ]
!453 = metadata !{i32 786434, null, metadata !"__normal_iterator<const char *, std::basic_string<char> >", metadata !422, i32 697, i32 0, i32 0, i32 0, i32 4, null, null, i32 0} ; [ DW_TAG_class_type ]
!454 = metadata !{i32 786478, i32 0, metadata !283, metadata !"_S_copy_chars", metadata !"_S_copy_chars", metadata !"_ZNSs13_S_copy_charsEPcS_S_", metadata !287, i32 384, metadata !455, i1 false, i1 false, i32 0, i32 0, null, i32 257, i1 false, null, null, i32 0, metadata !87, i32 384} ; [ DW_TAG_subprogram ]
!455 = metadata !{i32 786453, i32 0, metadata !"", i32 0, i32 0, i64 0, i64 0, i64 0, i32 0, null, metadata !456, i32 0, i32 0} ; [ DW_TAG_subroutine_type ]
!456 = metadata !{null, metadata !188, metadata !188, metadata !188}
!457 = metadata !{i32 786478, i32 0, metadata !283, metadata !"_S_copy_chars", metadata !"_S_copy_chars", metadata !"_ZNSs13_S_copy_charsEPcPKcS1_", metadata !287, i32 388, metadata !458, i1 false, i1 false, i32 0, i32 0, null, i32 257, i1 false, null, null, i32 0, metadata !87, i32 388} ; [ DW_TAG_subprogram ]
!458 = metadata !{i32 786453, i32 0, metadata !"", i32 0, i32 0, i64 0, i64 0, i64 0, i32 0, null, metadata !459, i32 0, i32 0} ; [ DW_TAG_subroutine_type ]
!459 = metadata !{null, metadata !188, metadata !151, metadata !151}
!460 = metadata !{i32 786478, i32 0, metadata !283, metadata !"_S_compare", metadata !"_S_compare", metadata !"_ZNSs10_S_compareEyy", metadata !287, i32 392, metadata !461, i1 false, i1 false, i32 0, i32 0, null, i32 257, i1 false, null, null, i32 0, metadata !87, i32 392} ; [ DW_TAG_subprogram ]
!461 = metadata !{i32 786453, i32 0, metadata !"", i32 0, i32 0, i64 0, i64 0, i64 0, i32 0, null, metadata !462, i32 0, i32 0} ; [ DW_TAG_subroutine_type ]
!462 = metadata !{metadata !56, metadata !378, metadata !378}
!463 = metadata !{i32 786478, i32 0, metadata !283, metadata !"_M_mutate", metadata !"_M_mutate", metadata !"_ZNSs9_M_mutateEyyy", metadata !287, i32 405, metadata !464, i1 false, i1 false, i32 0, i32 0, null, i32 257, i1 false, null, null, i32 0, metadata !87, i32 405} ; [ DW_TAG_subprogram ]
!464 = metadata !{i32 786453, i32 0, metadata !"", i32 0, i32 0, i64 0, i64 0, i64 0, i32 0, null, metadata !465, i32 0, i32 0} ; [ DW_TAG_subroutine_type ]
!465 = metadata !{null, metadata !367, metadata !378, metadata !378, metadata !378}
!466 = metadata !{i32 786478, i32 0, metadata !283, metadata !"_M_leak_hard", metadata !"_M_leak_hard", metadata !"_ZNSs12_M_leak_hardEv", metadata !287, i32 408, metadata !425, i1 false, i1 false, i32 0, i32 0, null, i32 257, i1 false, null, null, i32 0, metadata !87, i32 408} ; [ DW_TAG_subprogram ]
!467 = metadata !{i32 786478, i32 0, metadata !283, metadata !"_S_empty_rep", metadata !"_S_empty_rep", metadata !"_ZNSs12_S_empty_repEv", metadata !287, i32 411, metadata !383, i1 false, i1 false, i32 0, i32 0, null, i32 257, i1 false, null, null, i32 0, metadata !87, i32 411} ; [ DW_TAG_subprogram ]
!468 = metadata !{i32 786478, i32 0, metadata !283, metadata !"basic_string", metadata !"basic_string", metadata !"", metadata !287, i32 422, metadata !425, i1 false, i1 false, i32 0, i32 0, null, i32 256, i1 false, null, null, i32 0, metadata !87, i32 422} ; [ DW_TAG_subprogram ]
!469 = metadata !{i32 786478, i32 0, metadata !283, metadata !"basic_string", metadata !"basic_string", metadata !"", metadata !287, i32 433, metadata !470, i1 false, i1 false, i32 0, i32 0, null, i32 384, i1 false, null, null, i32 0, metadata !87, i32 433} ; [ DW_TAG_subprogram ]
!470 = metadata !{i32 786453, i32 0, metadata !"", i32 0, i32 0, i64 0, i64 0, i64 0, i32 0, null, metadata !471, i32 0, i32 0} ; [ DW_TAG_subroutine_type ]
!471 = metadata !{null, metadata !367, metadata !349}
!472 = metadata !{i32 786478, i32 0, metadata !283, metadata !"basic_string", metadata !"basic_string", metadata !"", metadata !287, i32 440, metadata !473, i1 false, i1 false, i32 0, i32 0, null, i32 256, i1 false, null, null, i32 0, metadata !87, i32 440} ; [ DW_TAG_subprogram ]
!473 = metadata !{i32 786453, i32 0, metadata !"", i32 0, i32 0, i64 0, i64 0, i64 0, i32 0, null, metadata !474, i32 0, i32 0} ; [ DW_TAG_subroutine_type ]
!474 = metadata !{null, metadata !367, metadata !475}
!475 = metadata !{i32 786448, null, null, null, i32 0, i64 0, i64 0, i64 0, i32 0, metadata !363} ; [ DW_TAG_reference_type ]
!476 = metadata !{i32 786478, i32 0, metadata !283, metadata !"basic_string", metadata !"basic_string", metadata !"", metadata !287, i32 447, metadata !477, i1 false, i1 false, i32 0, i32 0, null, i32 256, i1 false, null, null, i32 0, metadata !87, i32 447} ; [ DW_TAG_subprogram ]
!477 = metadata !{i32 786453, i32 0, metadata !"", i32 0, i32 0, i64 0, i64 0, i64 0, i32 0, null, metadata !478, i32 0, i32 0} ; [ DW_TAG_subroutine_type ]
!478 = metadata !{null, metadata !367, metadata !475, metadata !378, metadata !378}
!479 = metadata !{i32 786478, i32 0, metadata !283, metadata !"basic_string", metadata !"basic_string", metadata !"", metadata !287, i32 456, metadata !480, i1 false, i1 false, i32 0, i32 0, null, i32 256, i1 false, null, null, i32 0, metadata !87, i32 456} ; [ DW_TAG_subprogram ]
!480 = metadata !{i32 786453, i32 0, metadata !"", i32 0, i32 0, i64 0, i64 0, i64 0, i32 0, null, metadata !481, i32 0, i32 0} ; [ DW_TAG_subroutine_type ]
!481 = metadata !{null, metadata !367, metadata !475, metadata !378, metadata !378, metadata !349}
!482 = metadata !{i32 786478, i32 0, metadata !283, metadata !"basic_string", metadata !"basic_string", metadata !"", metadata !287, i32 468, metadata !483, i1 false, i1 false, i32 0, i32 0, null, i32 256, i1 false, null, null, i32 0, metadata !87, i32 468} ; [ DW_TAG_subprogram ]
!483 = metadata !{i32 786453, i32 0, metadata !"", i32 0, i32 0, i64 0, i64 0, i64 0, i32 0, null, metadata !484, i32 0, i32 0} ; [ DW_TAG_subroutine_type ]
!484 = metadata !{null, metadata !367, metadata !151, metadata !378, metadata !349}
!485 = metadata !{i32 786478, i32 0, metadata !283, metadata !"basic_string", metadata !"basic_string", metadata !"", metadata !287, i32 475, metadata !486, i1 false, i1 false, i32 0, i32 0, null, i32 256, i1 false, null, null, i32 0, metadata !87, i32 475} ; [ DW_TAG_subprogram ]
!486 = metadata !{i32 786453, i32 0, metadata !"", i32 0, i32 0, i64 0, i64 0, i64 0, i32 0, null, metadata !487, i32 0, i32 0} ; [ DW_TAG_subroutine_type ]
!487 = metadata !{null, metadata !367, metadata !151, metadata !349}
!488 = metadata !{i32 786478, i32 0, metadata !283, metadata !"basic_string", metadata !"basic_string", metadata !"", metadata !287, i32 482, metadata !489, i1 false, i1 false, i32 0, i32 0, null, i32 256, i1 false, null, null, i32 0, metadata !87, i32 482} ; [ DW_TAG_subprogram ]
!489 = metadata !{i32 786453, i32 0, metadata !"", i32 0, i32 0, i64 0, i64 0, i64 0, i32 0, null, metadata !490, i32 0, i32 0} ; [ DW_TAG_subroutine_type ]
!490 = metadata !{null, metadata !367, metadata !378, metadata !153, metadata !349}
!491 = metadata !{i32 786478, i32 0, metadata !283, metadata !"~basic_string", metadata !"~basic_string", metadata !"", metadata !287, i32 523, metadata !425, i1 false, i1 false, i32 0, i32 0, null, i32 256, i1 false, null, null, i32 0, metadata !87, i32 523} ; [ DW_TAG_subprogram ]
!492 = metadata !{i32 786478, i32 0, metadata !283, metadata !"operator=", metadata !"operator=", metadata !"_ZNSsaSERKSs", metadata !287, i32 531, metadata !493, i1 false, i1 false, i32 0, i32 0, null, i32 256, i1 false, null, null, i32 0, metadata !87, i32 531} ; [ DW_TAG_subprogram ]
!493 = metadata !{i32 786453, i32 0, metadata !"", i32 0, i32 0, i64 0, i64 0, i64 0, i32 0, null, metadata !494, i32 0, i32 0} ; [ DW_TAG_subroutine_type ]
!494 = metadata !{metadata !495, metadata !367, metadata !475}
!495 = metadata !{i32 786448, null, null, null, i32 0, i64 0, i64 0, i64 0, i32 0, metadata !283} ; [ DW_TAG_reference_type ]
!496 = metadata !{i32 786478, i32 0, metadata !283, metadata !"operator=", metadata !"operator=", metadata !"_ZNSsaSEPKc", metadata !287, i32 539, metadata !497, i1 false, i1 false, i32 0, i32 0, null, i32 256, i1 false, null, null, i32 0, metadata !87, i32 539} ; [ DW_TAG_subprogram ]
!497 = metadata !{i32 786453, i32 0, metadata !"", i32 0, i32 0, i64 0, i64 0, i64 0, i32 0, null, metadata !498, i32 0, i32 0} ; [ DW_TAG_subroutine_type ]
!498 = metadata !{metadata !495, metadata !367, metadata !151}
!499 = metadata !{i32 786478, i32 0, metadata !283, metadata !"operator=", metadata !"operator=", metadata !"_ZNSsaSEc", metadata !287, i32 550, metadata !500, i1 false, i1 false, i32 0, i32 0, null, i32 256, i1 false, null, null, i32 0, metadata !87, i32 550} ; [ DW_TAG_subprogram ]
!500 = metadata !{i32 786453, i32 0, metadata !"", i32 0, i32 0, i64 0, i64 0, i64 0, i32 0, null, metadata !501, i32 0, i32 0} ; [ DW_TAG_subroutine_type ]
!501 = metadata !{metadata !495, metadata !367, metadata !153}
!502 = metadata !{i32 786478, i32 0, metadata !283, metadata !"begin", metadata !"begin", metadata !"_ZNSs5beginEv", metadata !287, i32 590, metadata !503, i1 false, i1 false, i32 0, i32 0, null, i32 256, i1 false, null, null, i32 0, metadata !87, i32 590} ; [ DW_TAG_subprogram ]
!503 = metadata !{i32 786453, i32 0, metadata !"", i32 0, i32 0, i64 0, i64 0, i64 0, i32 0, null, metadata !504, i32 0, i32 0} ; [ DW_TAG_subroutine_type ]
!504 = metadata !{metadata !420, metadata !367}
!505 = metadata !{i32 786478, i32 0, metadata !283, metadata !"begin", metadata !"begin", metadata !"_ZNKSs5beginEv", metadata !287, i32 601, metadata !506, i1 false, i1 false, i32 0, i32 0, null, i32 256, i1 false, null, null, i32 0, metadata !87, i32 601} ; [ DW_TAG_subprogram ]
!506 = metadata !{i32 786453, i32 0, metadata !"", i32 0, i32 0, i64 0, i64 0, i64 0, i32 0, null, metadata !507, i32 0, i32 0} ; [ DW_TAG_subroutine_type ]
!507 = metadata !{metadata !452, metadata !362}
!508 = metadata !{i32 786478, i32 0, metadata !283, metadata !"end", metadata !"end", metadata !"_ZNSs3endEv", metadata !287, i32 609, metadata !503, i1 false, i1 false, i32 0, i32 0, null, i32 256, i1 false, null, null, i32 0, metadata !87, i32 609} ; [ DW_TAG_subprogram ]
!509 = metadata !{i32 786478, i32 0, metadata !283, metadata !"end", metadata !"end", metadata !"_ZNKSs3endEv", metadata !287, i32 620, metadata !506, i1 false, i1 false, i32 0, i32 0, null, i32 256, i1 false, null, null, i32 0, metadata !87, i32 620} ; [ DW_TAG_subprogram ]
!510 = metadata !{i32 786478, i32 0, metadata !283, metadata !"rbegin", metadata !"rbegin", metadata !"_ZNSs6rbeginEv", metadata !287, i32 629, metadata !511, i1 false, i1 false, i32 0, i32 0, null, i32 256, i1 false, null, null, i32 0, metadata !87, i32 629} ; [ DW_TAG_subprogram ]
!511 = metadata !{i32 786453, i32 0, metadata !"", i32 0, i32 0, i64 0, i64 0, i64 0, i32 0, null, metadata !512, i32 0, i32 0} ; [ DW_TAG_subroutine_type ]
!512 = metadata !{metadata !513, metadata !367}
!513 = metadata !{i32 786454, metadata !283, metadata !"reverse_iterator", metadata !284, i32 123, i64 0, i64 0, i64 0, i32 0, metadata !514} ; [ DW_TAG_typedef ]
!514 = metadata !{i32 786434, null, metadata !"reverse_iterator<__gnu_cxx::__normal_iterator<char *, std::basic_string<char> > >", metadata !422, i32 95, i32 0, i32 0, i32 0, i32 4, null, null, i32 0} ; [ DW_TAG_class_type ]
!515 = metadata !{i32 786478, i32 0, metadata !283, metadata !"rbegin", metadata !"rbegin", metadata !"_ZNKSs6rbeginEv", metadata !287, i32 638, metadata !516, i1 false, i1 false, i32 0, i32 0, null, i32 256, i1 false, null, null, i32 0, metadata !87, i32 638} ; [ DW_TAG_subprogram ]
!516 = metadata !{i32 786453, i32 0, metadata !"", i32 0, i32 0, i64 0, i64 0, i64 0, i32 0, null, metadata !517, i32 0, i32 0} ; [ DW_TAG_subroutine_type ]
!517 = metadata !{metadata !518, metadata !362}
!518 = metadata !{i32 786454, metadata !283, metadata !"const_reverse_iterator", metadata !284, i32 122, i64 0, i64 0, i64 0, i32 0, metadata !519} ; [ DW_TAG_typedef ]
!519 = metadata !{i32 786434, null, metadata !"reverse_iterator<__gnu_cxx::__normal_iterator<const char *, std::basic_string<char> > >", metadata !422, i32 95, i32 0, i32 0, i32 0, i32 4, null, null, i32 0} ; [ DW_TAG_class_type ]
!520 = metadata !{i32 786478, i32 0, metadata !283, metadata !"rend", metadata !"rend", metadata !"_ZNSs4rendEv", metadata !287, i32 647, metadata !511, i1 false, i1 false, i32 0, i32 0, null, i32 256, i1 false, null, null, i32 0, metadata !87, i32 647} ; [ DW_TAG_subprogram ]
!521 = metadata !{i32 786478, i32 0, metadata !283, metadata !"rend", metadata !"rend", metadata !"_ZNKSs4rendEv", metadata !287, i32 656, metadata !516, i1 false, i1 false, i32 0, i32 0, null, i32 256, i1 false, null, null, i32 0, metadata !87, i32 656} ; [ DW_TAG_subprogram ]
!522 = metadata !{i32 786478, i32 0, metadata !283, metadata !"size", metadata !"size", metadata !"_ZNKSs4sizeEv", metadata !287, i32 700, metadata !523, i1 false, i1 false, i32 0, i32 0, null, i32 256, i1 false, null, null, i32 0, metadata !87, i32 700} ; [ DW_TAG_subprogram ]
!523 = metadata !{i32 786453, i32 0, metadata !"", i32 0, i32 0, i64 0, i64 0, i64 0, i32 0, null, metadata !524, i32 0, i32 0} ; [ DW_TAG_subroutine_type ]
!524 = metadata !{metadata !378, metadata !362}
!525 = metadata !{i32 786478, i32 0, metadata !283, metadata !"length", metadata !"length", metadata !"_ZNKSs6lengthEv", metadata !287, i32 706, metadata !523, i1 false, i1 false, i32 0, i32 0, null, i32 256, i1 false, null, null, i32 0, metadata !87, i32 706} ; [ DW_TAG_subprogram ]
!526 = metadata !{i32 786478, i32 0, metadata !283, metadata !"max_size", metadata !"max_size", metadata !"_ZNKSs8max_sizeEv", metadata !287, i32 711, metadata !523, i1 false, i1 false, i32 0, i32 0, null, i32 256, i1 false, null, null, i32 0, metadata !87, i32 711} ; [ DW_TAG_subprogram ]
!527 = metadata !{i32 786478, i32 0, metadata !283, metadata !"resize", metadata !"resize", metadata !"_ZNSs6resizeEyc", metadata !287, i32 725, metadata !528, i1 false, i1 false, i32 0, i32 0, null, i32 256, i1 false, null, null, i32 0, metadata !87, i32 725} ; [ DW_TAG_subprogram ]
!528 = metadata !{i32 786453, i32 0, metadata !"", i32 0, i32 0, i64 0, i64 0, i64 0, i32 0, null, metadata !529, i32 0, i32 0} ; [ DW_TAG_subroutine_type ]
!529 = metadata !{null, metadata !367, metadata !378, metadata !153}
!530 = metadata !{i32 786478, i32 0, metadata !283, metadata !"resize", metadata !"resize", metadata !"_ZNSs6resizeEy", metadata !287, i32 738, metadata !531, i1 false, i1 false, i32 0, i32 0, null, i32 256, i1 false, null, null, i32 0, metadata !87, i32 738} ; [ DW_TAG_subprogram ]
!531 = metadata !{i32 786453, i32 0, metadata !"", i32 0, i32 0, i64 0, i64 0, i64 0, i32 0, null, metadata !532, i32 0, i32 0} ; [ DW_TAG_subroutine_type ]
!532 = metadata !{null, metadata !367, metadata !378}
!533 = metadata !{i32 786478, i32 0, metadata !283, metadata !"capacity", metadata !"capacity", metadata !"_ZNKSs8capacityEv", metadata !287, i32 758, metadata !523, i1 false, i1 false, i32 0, i32 0, null, i32 256, i1 false, null, null, i32 0, metadata !87, i32 758} ; [ DW_TAG_subprogram ]
!534 = metadata !{i32 786478, i32 0, metadata !283, metadata !"reserve", metadata !"reserve", metadata !"_ZNSs7reserveEy", metadata !287, i32 779, metadata !531, i1 false, i1 false, i32 0, i32 0, null, i32 256, i1 false, null, null, i32 0, metadata !87, i32 779} ; [ DW_TAG_subprogram ]
!535 = metadata !{i32 786478, i32 0, metadata !283, metadata !"clear", metadata !"clear", metadata !"_ZNSs5clearEv", metadata !287, i32 785, metadata !425, i1 false, i1 false, i32 0, i32 0, null, i32 256, i1 false, null, null, i32 0, metadata !87, i32 785} ; [ DW_TAG_subprogram ]
!536 = metadata !{i32 786478, i32 0, metadata !283, metadata !"empty", metadata !"empty", metadata !"_ZNKSs5emptyEv", metadata !287, i32 793, metadata !537, i1 false, i1 false, i32 0, i32 0, null, i32 256, i1 false, null, null, i32 0, metadata !87, i32 793} ; [ DW_TAG_subprogram ]
!537 = metadata !{i32 786453, i32 0, metadata !"", i32 0, i32 0, i64 0, i64 0, i64 0, i32 0, null, metadata !538, i32 0, i32 0} ; [ DW_TAG_subroutine_type ]
!538 = metadata !{metadata !213, metadata !362}
!539 = metadata !{i32 786478, i32 0, metadata !283, metadata !"operator[]", metadata !"operator[]", metadata !"_ZNKSsixEy", metadata !287, i32 808, metadata !540, i1 false, i1 false, i32 0, i32 0, null, i32 256, i1 false, null, null, i32 0, metadata !87, i32 808} ; [ DW_TAG_subprogram ]
!540 = metadata !{i32 786453, i32 0, metadata !"", i32 0, i32 0, i64 0, i64 0, i64 0, i32 0, null, metadata !541, i32 0, i32 0} ; [ DW_TAG_subroutine_type ]
!541 = metadata !{metadata !542, metadata !362, metadata !378}
!542 = metadata !{i32 786454, metadata !283, metadata !"const_reference", metadata !284, i32 116, i64 0, i64 0, i64 0, i32 0, metadata !543} ; [ DW_TAG_typedef ]
!543 = metadata !{i32 786454, metadata !291, metadata !"const_reference", metadata !284, i32 94, i64 0, i64 0, i64 0, i32 0, metadata !321} ; [ DW_TAG_typedef ]
!544 = metadata !{i32 786478, i32 0, metadata !283, metadata !"operator[]", metadata !"operator[]", metadata !"_ZNSsixEy", metadata !287, i32 825, metadata !545, i1 false, i1 false, i32 0, i32 0, null, i32 256, i1 false, null, null, i32 0, metadata !87, i32 825} ; [ DW_TAG_subprogram ]
!545 = metadata !{i32 786453, i32 0, metadata !"", i32 0, i32 0, i64 0, i64 0, i64 0, i32 0, null, metadata !546, i32 0, i32 0} ; [ DW_TAG_subroutine_type ]
!546 = metadata !{metadata !547, metadata !367, metadata !378}
!547 = metadata !{i32 786454, metadata !283, metadata !"reference", metadata !284, i32 115, i64 0, i64 0, i64 0, i32 0, metadata !548} ; [ DW_TAG_typedef ]
!548 = metadata !{i32 786454, metadata !291, metadata !"reference", metadata !284, i32 93, i64 0, i64 0, i64 0, i32 0, metadata !315} ; [ DW_TAG_typedef ]
!549 = metadata !{i32 786478, i32 0, metadata !283, metadata !"at", metadata !"at", metadata !"_ZNKSs2atEy", metadata !287, i32 846, metadata !540, i1 false, i1 false, i32 0, i32 0, null, i32 256, i1 false, null, null, i32 0, metadata !87, i32 846} ; [ DW_TAG_subprogram ]
!550 = metadata !{i32 786478, i32 0, metadata !283, metadata !"at", metadata !"at", metadata !"_ZNSs2atEy", metadata !287, i32 865, metadata !545, i1 false, i1 false, i32 0, i32 0, null, i32 256, i1 false, null, null, i32 0, metadata !87, i32 865} ; [ DW_TAG_subprogram ]
!551 = metadata !{i32 786478, i32 0, metadata !283, metadata !"operator+=", metadata !"operator+=", metadata !"_ZNSspLERKSs", metadata !287, i32 880, metadata !493, i1 false, i1 false, i32 0, i32 0, null, i32 256, i1 false, null, null, i32 0, metadata !87, i32 880} ; [ DW_TAG_subprogram ]
!552 = metadata !{i32 786478, i32 0, metadata !283, metadata !"operator+=", metadata !"operator+=", metadata !"_ZNSspLEPKc", metadata !287, i32 889, metadata !497, i1 false, i1 false, i32 0, i32 0, null, i32 256, i1 false, null, null, i32 0, metadata !87, i32 889} ; [ DW_TAG_subprogram ]
!553 = metadata !{i32 786478, i32 0, metadata !283, metadata !"operator+=", metadata !"operator+=", metadata !"_ZNSspLEc", metadata !287, i32 898, metadata !500, i1 false, i1 false, i32 0, i32 0, null, i32 256, i1 false, null, null, i32 0, metadata !87, i32 898} ; [ DW_TAG_subprogram ]
!554 = metadata !{i32 786478, i32 0, metadata !283, metadata !"append", metadata !"append", metadata !"_ZNSs6appendERKSs", metadata !287, i32 921, metadata !493, i1 false, i1 false, i32 0, i32 0, null, i32 256, i1 false, null, null, i32 0, metadata !87, i32 921} ; [ DW_TAG_subprogram ]
!555 = metadata !{i32 786478, i32 0, metadata !283, metadata !"append", metadata !"append", metadata !"_ZNSs6appendERKSsyy", metadata !287, i32 936, metadata !556, i1 false, i1 false, i32 0, i32 0, null, i32 256, i1 false, null, null, i32 0, metadata !87, i32 936} ; [ DW_TAG_subprogram ]
!556 = metadata !{i32 786453, i32 0, metadata !"", i32 0, i32 0, i64 0, i64 0, i64 0, i32 0, null, metadata !557, i32 0, i32 0} ; [ DW_TAG_subroutine_type ]
!557 = metadata !{metadata !495, metadata !367, metadata !475, metadata !378, metadata !378}
!558 = metadata !{i32 786478, i32 0, metadata !283, metadata !"append", metadata !"append", metadata !"_ZNSs6appendEPKcy", metadata !287, i32 945, metadata !559, i1 false, i1 false, i32 0, i32 0, null, i32 256, i1 false, null, null, i32 0, metadata !87, i32 945} ; [ DW_TAG_subprogram ]
!559 = metadata !{i32 786453, i32 0, metadata !"", i32 0, i32 0, i64 0, i64 0, i64 0, i32 0, null, metadata !560, i32 0, i32 0} ; [ DW_TAG_subroutine_type ]
!560 = metadata !{metadata !495, metadata !367, metadata !151, metadata !378}
!561 = metadata !{i32 786478, i32 0, metadata !283, metadata !"append", metadata !"append", metadata !"_ZNSs6appendEPKc", metadata !287, i32 953, metadata !497, i1 false, i1 false, i32 0, i32 0, null, i32 256, i1 false, null, null, i32 0, metadata !87, i32 953} ; [ DW_TAG_subprogram ]
!562 = metadata !{i32 786478, i32 0, metadata !283, metadata !"append", metadata !"append", metadata !"_ZNSs6appendEyc", metadata !287, i32 968, metadata !563, i1 false, i1 false, i32 0, i32 0, null, i32 256, i1 false, null, null, i32 0, metadata !87, i32 968} ; [ DW_TAG_subprogram ]
!563 = metadata !{i32 786453, i32 0, metadata !"", i32 0, i32 0, i64 0, i64 0, i64 0, i32 0, null, metadata !564, i32 0, i32 0} ; [ DW_TAG_subroutine_type ]
!564 = metadata !{metadata !495, metadata !367, metadata !378, metadata !153}
!565 = metadata !{i32 786478, i32 0, metadata !283, metadata !"push_back", metadata !"push_back", metadata !"_ZNSs9push_backEc", metadata !287, i32 999, metadata !566, i1 false, i1 false, i32 0, i32 0, null, i32 256, i1 false, null, null, i32 0, metadata !87, i32 999} ; [ DW_TAG_subprogram ]
!566 = metadata !{i32 786453, i32 0, metadata !"", i32 0, i32 0, i64 0, i64 0, i64 0, i32 0, null, metadata !567, i32 0, i32 0} ; [ DW_TAG_subroutine_type ]
!567 = metadata !{null, metadata !367, metadata !153}
!568 = metadata !{i32 786478, i32 0, metadata !283, metadata !"assign", metadata !"assign", metadata !"_ZNSs6assignERKSs", metadata !287, i32 1014, metadata !493, i1 false, i1 false, i32 0, i32 0, null, i32 256, i1 false, null, null, i32 0, metadata !87, i32 1014} ; [ DW_TAG_subprogram ]
!569 = metadata !{i32 786478, i32 0, metadata !283, metadata !"assign", metadata !"assign", metadata !"_ZNSs6assignERKSsyy", metadata !287, i32 1046, metadata !556, i1 false, i1 false, i32 0, i32 0, null, i32 256, i1 false, null, null, i32 0, metadata !87, i32 1046} ; [ DW_TAG_subprogram ]
!570 = metadata !{i32 786478, i32 0, metadata !283, metadata !"assign", metadata !"assign", metadata !"_ZNSs6assignEPKcy", metadata !287, i32 1062, metadata !559, i1 false, i1 false, i32 0, i32 0, null, i32 256, i1 false, null, null, i32 0, metadata !87, i32 1062} ; [ DW_TAG_subprogram ]
!571 = metadata !{i32 786478, i32 0, metadata !283, metadata !"assign", metadata !"assign", metadata !"_ZNSs6assignEPKc", metadata !287, i32 1074, metadata !497, i1 false, i1 false, i32 0, i32 0, null, i32 256, i1 false, null, null, i32 0, metadata !87, i32 1074} ; [ DW_TAG_subprogram ]
!572 = metadata !{i32 786478, i32 0, metadata !283, metadata !"assign", metadata !"assign", metadata !"_ZNSs6assignEyc", metadata !287, i32 1090, metadata !563, i1 false, i1 false, i32 0, i32 0, null, i32 256, i1 false, null, null, i32 0, metadata !87, i32 1090} ; [ DW_TAG_subprogram ]
!573 = metadata !{i32 786478, i32 0, metadata !283, metadata !"insert", metadata !"insert", metadata !"_ZNSs6insertEN9__gnu_cxx17__normal_iteratorIPcSsEEyc", metadata !287, i32 1130, metadata !574, i1 false, i1 false, i32 0, i32 0, null, i32 256, i1 false, null, null, i32 0, metadata !87, i32 1130} ; [ DW_TAG_subprogram ]
!574 = metadata !{i32 786453, i32 0, metadata !"", i32 0, i32 0, i64 0, i64 0, i64 0, i32 0, null, metadata !575, i32 0, i32 0} ; [ DW_TAG_subroutine_type ]
!575 = metadata !{null, metadata !367, metadata !420, metadata !378, metadata !153}
!576 = metadata !{i32 786478, i32 0, metadata !283, metadata !"insert", metadata !"insert", metadata !"_ZNSs6insertEyRKSs", metadata !287, i32 1176, metadata !577, i1 false, i1 false, i32 0, i32 0, null, i32 256, i1 false, null, null, i32 0, metadata !87, i32 1176} ; [ DW_TAG_subprogram ]
!577 = metadata !{i32 786453, i32 0, metadata !"", i32 0, i32 0, i64 0, i64 0, i64 0, i32 0, null, metadata !578, i32 0, i32 0} ; [ DW_TAG_subroutine_type ]
!578 = metadata !{metadata !495, metadata !367, metadata !378, metadata !475}
!579 = metadata !{i32 786478, i32 0, metadata !283, metadata !"insert", metadata !"insert", metadata !"_ZNSs6insertEyRKSsyy", metadata !287, i32 1198, metadata !580, i1 false, i1 false, i32 0, i32 0, null, i32 256, i1 false, null, null, i32 0, metadata !87, i32 1198} ; [ DW_TAG_subprogram ]
!580 = metadata !{i32 786453, i32 0, metadata !"", i32 0, i32 0, i64 0, i64 0, i64 0, i32 0, null, metadata !581, i32 0, i32 0} ; [ DW_TAG_subroutine_type ]
!581 = metadata !{metadata !495, metadata !367, metadata !378, metadata !475, metadata !378, metadata !378}
!582 = metadata !{i32 786478, i32 0, metadata !283, metadata !"insert", metadata !"insert", metadata !"_ZNSs6insertEyPKcy", metadata !287, i32 1221, metadata !583, i1 false, i1 false, i32 0, i32 0, null, i32 256, i1 false, null, null, i32 0, metadata !87, i32 1221} ; [ DW_TAG_subprogram ]
!583 = metadata !{i32 786453, i32 0, metadata !"", i32 0, i32 0, i64 0, i64 0, i64 0, i32 0, null, metadata !584, i32 0, i32 0} ; [ DW_TAG_subroutine_type ]
!584 = metadata !{metadata !495, metadata !367, metadata !378, metadata !151, metadata !378}
!585 = metadata !{i32 786478, i32 0, metadata !283, metadata !"insert", metadata !"insert", metadata !"_ZNSs6insertEyPKc", metadata !287, i32 1239, metadata !586, i1 false, i1 false, i32 0, i32 0, null, i32 256, i1 false, null, null, i32 0, metadata !87, i32 1239} ; [ DW_TAG_subprogram ]
!586 = metadata !{i32 786453, i32 0, metadata !"", i32 0, i32 0, i64 0, i64 0, i64 0, i32 0, null, metadata !587, i32 0, i32 0} ; [ DW_TAG_subroutine_type ]
!587 = metadata !{metadata !495, metadata !367, metadata !378, metadata !151}
!588 = metadata !{i32 786478, i32 0, metadata !283, metadata !"insert", metadata !"insert", metadata !"_ZNSs6insertEyyc", metadata !287, i32 1262, metadata !589, i1 false, i1 false, i32 0, i32 0, null, i32 256, i1 false, null, null, i32 0, metadata !87, i32 1262} ; [ DW_TAG_subprogram ]
!589 = metadata !{i32 786453, i32 0, metadata !"", i32 0, i32 0, i64 0, i64 0, i64 0, i32 0, null, metadata !590, i32 0, i32 0} ; [ DW_TAG_subroutine_type ]
!590 = metadata !{metadata !495, metadata !367, metadata !378, metadata !378, metadata !153}
!591 = metadata !{i32 786478, i32 0, metadata !283, metadata !"insert", metadata !"insert", metadata !"_ZNSs6insertEN9__gnu_cxx17__normal_iteratorIPcSsEEc", metadata !287, i32 1279, metadata !592, i1 false, i1 false, i32 0, i32 0, null, i32 256, i1 false, null, null, i32 0, metadata !87, i32 1279} ; [ DW_TAG_subprogram ]
!592 = metadata !{i32 786453, i32 0, metadata !"", i32 0, i32 0, i64 0, i64 0, i64 0, i32 0, null, metadata !593, i32 0, i32 0} ; [ DW_TAG_subroutine_type ]
!593 = metadata !{metadata !420, metadata !367, metadata !420, metadata !153}
!594 = metadata !{i32 786478, i32 0, metadata !283, metadata !"erase", metadata !"erase", metadata !"_ZNSs5eraseEyy", metadata !287, i32 1303, metadata !595, i1 false, i1 false, i32 0, i32 0, null, i32 256, i1 false, null, null, i32 0, metadata !87, i32 1303} ; [ DW_TAG_subprogram ]
!595 = metadata !{i32 786453, i32 0, metadata !"", i32 0, i32 0, i64 0, i64 0, i64 0, i32 0, null, metadata !596, i32 0, i32 0} ; [ DW_TAG_subroutine_type ]
!596 = metadata !{metadata !495, metadata !367, metadata !378, metadata !378}
!597 = metadata !{i32 786478, i32 0, metadata !283, metadata !"erase", metadata !"erase", metadata !"_ZNSs5eraseEN9__gnu_cxx17__normal_iteratorIPcSsEE", metadata !287, i32 1319, metadata !598, i1 false, i1 false, i32 0, i32 0, null, i32 256, i1 false, null, null, i32 0, metadata !87, i32 1319} ; [ DW_TAG_subprogram ]
!598 = metadata !{i32 786453, i32 0, metadata !"", i32 0, i32 0, i64 0, i64 0, i64 0, i32 0, null, metadata !599, i32 0, i32 0} ; [ DW_TAG_subroutine_type ]
!599 = metadata !{metadata !420, metadata !367, metadata !420}
!600 = metadata !{i32 786478, i32 0, metadata !283, metadata !"erase", metadata !"erase", metadata !"_ZNSs5eraseEN9__gnu_cxx17__normal_iteratorIPcSsEES2_", metadata !287, i32 1339, metadata !601, i1 false, i1 false, i32 0, i32 0, null, i32 256, i1 false, null, null, i32 0, metadata !87, i32 1339} ; [ DW_TAG_subprogram ]
!601 = metadata !{i32 786453, i32 0, metadata !"", i32 0, i32 0, i64 0, i64 0, i64 0, i32 0, null, metadata !602, i32 0, i32 0} ; [ DW_TAG_subroutine_type ]
!602 = metadata !{metadata !420, metadata !367, metadata !420, metadata !420}
!603 = metadata !{i32 786478, i32 0, metadata !283, metadata !"replace", metadata !"replace", metadata !"_ZNSs7replaceEyyRKSs", metadata !287, i32 1358, metadata !604, i1 false, i1 false, i32 0, i32 0, null, i32 256, i1 false, null, null, i32 0, metadata !87, i32 1358} ; [ DW_TAG_subprogram ]
!604 = metadata !{i32 786453, i32 0, metadata !"", i32 0, i32 0, i64 0, i64 0, i64 0, i32 0, null, metadata !605, i32 0, i32 0} ; [ DW_TAG_subroutine_type ]
!605 = metadata !{metadata !495, metadata !367, metadata !378, metadata !378, metadata !475}
!606 = metadata !{i32 786478, i32 0, metadata !283, metadata !"replace", metadata !"replace", metadata !"_ZNSs7replaceEyyRKSsyy", metadata !287, i32 1380, metadata !607, i1 false, i1 false, i32 0, i32 0, null, i32 256, i1 false, null, null, i32 0, metadata !87, i32 1380} ; [ DW_TAG_subprogram ]
!607 = metadata !{i32 786453, i32 0, metadata !"", i32 0, i32 0, i64 0, i64 0, i64 0, i32 0, null, metadata !608, i32 0, i32 0} ; [ DW_TAG_subroutine_type ]
!608 = metadata !{metadata !495, metadata !367, metadata !378, metadata !378, metadata !475, metadata !378, metadata !378}
!609 = metadata !{i32 786478, i32 0, metadata !283, metadata !"replace", metadata !"replace", metadata !"_ZNSs7replaceEyyPKcy", metadata !287, i32 1404, metadata !610, i1 false, i1 false, i32 0, i32 0, null, i32 256, i1 false, null, null, i32 0, metadata !87, i32 1404} ; [ DW_TAG_subprogram ]
!610 = metadata !{i32 786453, i32 0, metadata !"", i32 0, i32 0, i64 0, i64 0, i64 0, i32 0, null, metadata !611, i32 0, i32 0} ; [ DW_TAG_subroutine_type ]
!611 = metadata !{metadata !495, metadata !367, metadata !378, metadata !378, metadata !151, metadata !378}
!612 = metadata !{i32 786478, i32 0, metadata !283, metadata !"replace", metadata !"replace", metadata !"_ZNSs7replaceEyyPKc", metadata !287, i32 1423, metadata !613, i1 false, i1 false, i32 0, i32 0, null, i32 256, i1 false, null, null, i32 0, metadata !87, i32 1423} ; [ DW_TAG_subprogram ]
!613 = metadata !{i32 786453, i32 0, metadata !"", i32 0, i32 0, i64 0, i64 0, i64 0, i32 0, null, metadata !614, i32 0, i32 0} ; [ DW_TAG_subroutine_type ]
!614 = metadata !{metadata !495, metadata !367, metadata !378, metadata !378, metadata !151}
!615 = metadata !{i32 786478, i32 0, metadata !283, metadata !"replace", metadata !"replace", metadata !"_ZNSs7replaceEyyyc", metadata !287, i32 1446, metadata !616, i1 false, i1 false, i32 0, i32 0, null, i32 256, i1 false, null, null, i32 0, metadata !87, i32 1446} ; [ DW_TAG_subprogram ]
!616 = metadata !{i32 786453, i32 0, metadata !"", i32 0, i32 0, i64 0, i64 0, i64 0, i32 0, null, metadata !617, i32 0, i32 0} ; [ DW_TAG_subroutine_type ]
!617 = metadata !{metadata !495, metadata !367, metadata !378, metadata !378, metadata !378, metadata !153}
!618 = metadata !{i32 786478, i32 0, metadata !283, metadata !"replace", metadata !"replace", metadata !"_ZNSs7replaceEN9__gnu_cxx17__normal_iteratorIPcSsEES2_RKSs", metadata !287, i32 1464, metadata !619, i1 false, i1 false, i32 0, i32 0, null, i32 256, i1 false, null, null, i32 0, metadata !87, i32 1464} ; [ DW_TAG_subprogram ]
!619 = metadata !{i32 786453, i32 0, metadata !"", i32 0, i32 0, i64 0, i64 0, i64 0, i32 0, null, metadata !620, i32 0, i32 0} ; [ DW_TAG_subroutine_type ]
!620 = metadata !{metadata !495, metadata !367, metadata !420, metadata !420, metadata !475}
!621 = metadata !{i32 786478, i32 0, metadata !283, metadata !"replace", metadata !"replace", metadata !"_ZNSs7replaceEN9__gnu_cxx17__normal_iteratorIPcSsEES2_PKcy", metadata !287, i32 1482, metadata !622, i1 false, i1 false, i32 0, i32 0, null, i32 256, i1 false, null, null, i32 0, metadata !87, i32 1482} ; [ DW_TAG_subprogram ]
!622 = metadata !{i32 786453, i32 0, metadata !"", i32 0, i32 0, i64 0, i64 0, i64 0, i32 0, null, metadata !623, i32 0, i32 0} ; [ DW_TAG_subroutine_type ]
!623 = metadata !{metadata !495, metadata !367, metadata !420, metadata !420, metadata !151, metadata !378}
!624 = metadata !{i32 786478, i32 0, metadata !283, metadata !"replace", metadata !"replace", metadata !"_ZNSs7replaceEN9__gnu_cxx17__normal_iteratorIPcSsEES2_PKc", metadata !287, i32 1503, metadata !625, i1 false, i1 false, i32 0, i32 0, null, i32 256, i1 false, null, null, i32 0, metadata !87, i32 1503} ; [ DW_TAG_subprogram ]
!625 = metadata !{i32 786453, i32 0, metadata !"", i32 0, i32 0, i64 0, i64 0, i64 0, i32 0, null, metadata !626, i32 0, i32 0} ; [ DW_TAG_subroutine_type ]
!626 = metadata !{metadata !495, metadata !367, metadata !420, metadata !420, metadata !151}
!627 = metadata !{i32 786478, i32 0, metadata !283, metadata !"replace", metadata !"replace", metadata !"_ZNSs7replaceEN9__gnu_cxx17__normal_iteratorIPcSsEES2_yc", metadata !287, i32 1524, metadata !628, i1 false, i1 false, i32 0, i32 0, null, i32 256, i1 false, null, null, i32 0, metadata !87, i32 1524} ; [ DW_TAG_subprogram ]
!628 = metadata !{i32 786453, i32 0, metadata !"", i32 0, i32 0, i64 0, i64 0, i64 0, i32 0, null, metadata !629, i32 0, i32 0} ; [ DW_TAG_subroutine_type ]
!629 = metadata !{metadata !495, metadata !367, metadata !420, metadata !420, metadata !378, metadata !153}
!630 = metadata !{i32 786478, i32 0, metadata !283, metadata !"replace", metadata !"replace", metadata !"_ZNSs7replaceEN9__gnu_cxx17__normal_iteratorIPcSsEES2_S1_S1_", metadata !287, i32 1560, metadata !631, i1 false, i1 false, i32 0, i32 0, null, i32 256, i1 false, null, null, i32 0, metadata !87, i32 1560} ; [ DW_TAG_subprogram ]
!631 = metadata !{i32 786453, i32 0, metadata !"", i32 0, i32 0, i64 0, i64 0, i64 0, i32 0, null, metadata !632, i32 0, i32 0} ; [ DW_TAG_subroutine_type ]
!632 = metadata !{metadata !495, metadata !367, metadata !420, metadata !420, metadata !188, metadata !188}
!633 = metadata !{i32 786478, i32 0, metadata !283, metadata !"replace", metadata !"replace", metadata !"_ZNSs7replaceEN9__gnu_cxx17__normal_iteratorIPcSsEES2_PKcS4_", metadata !287, i32 1570, metadata !634, i1 false, i1 false, i32 0, i32 0, null, i32 256, i1 false, null, null, i32 0, metadata !87, i32 1570} ; [ DW_TAG_subprogram ]
!634 = metadata !{i32 786453, i32 0, metadata !"", i32 0, i32 0, i64 0, i64 0, i64 0, i32 0, null, metadata !635, i32 0, i32 0} ; [ DW_TAG_subroutine_type ]
!635 = metadata !{metadata !495, metadata !367, metadata !420, metadata !420, metadata !151, metadata !151}
!636 = metadata !{i32 786478, i32 0, metadata !283, metadata !"replace", metadata !"replace", metadata !"_ZNSs7replaceEN9__gnu_cxx17__normal_iteratorIPcSsEES2_S2_S2_", metadata !287, i32 1581, metadata !637, i1 false, i1 false, i32 0, i32 0, null, i32 256, i1 false, null, null, i32 0, metadata !87, i32 1581} ; [ DW_TAG_subprogram ]
!637 = metadata !{i32 786453, i32 0, metadata !"", i32 0, i32 0, i64 0, i64 0, i64 0, i32 0, null, metadata !638, i32 0, i32 0} ; [ DW_TAG_subroutine_type ]
!638 = metadata !{metadata !495, metadata !367, metadata !420, metadata !420, metadata !420, metadata !420}
!639 = metadata !{i32 786478, i32 0, metadata !283, metadata !"replace", metadata !"replace", metadata !"_ZNSs7replaceEN9__gnu_cxx17__normal_iteratorIPcSsEES2_NS0_IPKcSsEES5_", metadata !287, i32 1591, metadata !640, i1 false, i1 false, i32 0, i32 0, null, i32 256, i1 false, null, null, i32 0, metadata !87, i32 1591} ; [ DW_TAG_subprogram ]
!640 = metadata !{i32 786453, i32 0, metadata !"", i32 0, i32 0, i64 0, i64 0, i64 0, i32 0, null, metadata !641, i32 0, i32 0} ; [ DW_TAG_subroutine_type ]
!641 = metadata !{metadata !495, metadata !367, metadata !420, metadata !420, metadata !452, metadata !452}
!642 = metadata !{i32 786478, i32 0, metadata !283, metadata !"_M_replace_aux", metadata !"_M_replace_aux", metadata !"_ZNSs14_M_replace_auxEyyyc", metadata !287, i32 1633, metadata !616, i1 false, i1 false, i32 0, i32 0, null, i32 257, i1 false, null, null, i32 0, metadata !87, i32 1633} ; [ DW_TAG_subprogram ]
!643 = metadata !{i32 786478, i32 0, metadata !283, metadata !"_M_replace_safe", metadata !"_M_replace_safe", metadata !"_ZNSs15_M_replace_safeEyyPKcy", metadata !287, i32 1637, metadata !610, i1 false, i1 false, i32 0, i32 0, null, i32 257, i1 false, null, null, i32 0, metadata !87, i32 1637} ; [ DW_TAG_subprogram ]
!644 = metadata !{i32 786478, i32 0, metadata !283, metadata !"_S_construct_aux_2", metadata !"_S_construct_aux_2", metadata !"_ZNSs18_S_construct_aux_2EycRKSaIcE", metadata !287, i32 1661, metadata !645, i1 false, i1 false, i32 0, i32 0, null, i32 257, i1 false, null, null, i32 0, metadata !87, i32 1661} ; [ DW_TAG_subprogram ]
!645 = metadata !{i32 786453, i32 0, metadata !"", i32 0, i32 0, i64 0, i64 0, i64 0, i32 0, null, metadata !646, i32 0, i32 0} ; [ DW_TAG_subroutine_type ]
!646 = metadata !{metadata !188, metadata !378, metadata !153, metadata !349}
!647 = metadata !{i32 786478, i32 0, metadata !283, metadata !"_S_construct", metadata !"_S_construct", metadata !"_ZNSs12_S_constructEycRKSaIcE", metadata !287, i32 1686, metadata !645, i1 false, i1 false, i32 0, i32 0, null, i32 257, i1 false, null, null, i32 0, metadata !87, i32 1686} ; [ DW_TAG_subprogram ]
!648 = metadata !{i32 786478, i32 0, metadata !283, metadata !"copy", metadata !"copy", metadata !"_ZNKSs4copyEPcyy", metadata !287, i32 1702, metadata !649, i1 false, i1 false, i32 0, i32 0, null, i32 256, i1 false, null, null, i32 0, metadata !87, i32 1702} ; [ DW_TAG_subprogram ]
!649 = metadata !{i32 786453, i32 0, metadata !"", i32 0, i32 0, i64 0, i64 0, i64 0, i32 0, null, metadata !650, i32 0, i32 0} ; [ DW_TAG_subroutine_type ]
!650 = metadata !{metadata !378, metadata !362, metadata !188, metadata !378, metadata !378}
!651 = metadata !{i32 786478, i32 0, metadata !283, metadata !"swap", metadata !"swap", metadata !"_ZNSs4swapERSs", metadata !287, i32 1712, metadata !652, i1 false, i1 false, i32 0, i32 0, null, i32 256, i1 false, null, null, i32 0, metadata !87, i32 1712} ; [ DW_TAG_subprogram ]
!652 = metadata !{i32 786453, i32 0, metadata !"", i32 0, i32 0, i64 0, i64 0, i64 0, i32 0, null, metadata !653, i32 0, i32 0} ; [ DW_TAG_subroutine_type ]
!653 = metadata !{null, metadata !367, metadata !495}
!654 = metadata !{i32 786478, i32 0, metadata !283, metadata !"c_str", metadata !"c_str", metadata !"_ZNKSs5c_strEv", metadata !287, i32 1722, metadata !655, i1 false, i1 false, i32 0, i32 0, null, i32 256, i1 false, null, null, i32 0, metadata !87, i32 1722} ; [ DW_TAG_subprogram ]
!655 = metadata !{i32 786453, i32 0, metadata !"", i32 0, i32 0, i64 0, i64 0, i64 0, i32 0, null, metadata !656, i32 0, i32 0} ; [ DW_TAG_subroutine_type ]
!656 = metadata !{metadata !151, metadata !362}
!657 = metadata !{i32 786478, i32 0, metadata !283, metadata !"data", metadata !"data", metadata !"_ZNKSs4dataEv", metadata !287, i32 1732, metadata !655, i1 false, i1 false, i32 0, i32 0, null, i32 256, i1 false, null, null, i32 0, metadata !87, i32 1732} ; [ DW_TAG_subprogram ]
!658 = metadata !{i32 786478, i32 0, metadata !283, metadata !"get_allocator", metadata !"get_allocator", metadata !"_ZNKSs13get_allocatorEv", metadata !287, i32 1739, metadata !659, i1 false, i1 false, i32 0, i32 0, null, i32 256, i1 false, null, null, i32 0, metadata !87, i32 1739} ; [ DW_TAG_subprogram ]
!659 = metadata !{i32 786453, i32 0, metadata !"", i32 0, i32 0, i64 0, i64 0, i64 0, i32 0, null, metadata !660, i32 0, i32 0} ; [ DW_TAG_subroutine_type ]
!660 = metadata !{metadata !661, metadata !362}
!661 = metadata !{i32 786454, metadata !283, metadata !"allocator_type", metadata !284, i32 112, i64 0, i64 0, i64 0, i32 0, metadata !291} ; [ DW_TAG_typedef ]
!662 = metadata !{i32 786478, i32 0, metadata !283, metadata !"find", metadata !"find", metadata !"_ZNKSs4findEPKcyy", metadata !287, i32 1754, metadata !663, i1 false, i1 false, i32 0, i32 0, null, i32 256, i1 false, null, null, i32 0, metadata !87, i32 1754} ; [ DW_TAG_subprogram ]
!663 = metadata !{i32 786453, i32 0, metadata !"", i32 0, i32 0, i64 0, i64 0, i64 0, i32 0, null, metadata !664, i32 0, i32 0} ; [ DW_TAG_subroutine_type ]
!664 = metadata !{metadata !378, metadata !362, metadata !151, metadata !378, metadata !378}
!665 = metadata !{i32 786478, i32 0, metadata !283, metadata !"find", metadata !"find", metadata !"_ZNKSs4findERKSsy", metadata !287, i32 1767, metadata !666, i1 false, i1 false, i32 0, i32 0, null, i32 256, i1 false, null, null, i32 0, metadata !87, i32 1767} ; [ DW_TAG_subprogram ]
!666 = metadata !{i32 786453, i32 0, metadata !"", i32 0, i32 0, i64 0, i64 0, i64 0, i32 0, null, metadata !667, i32 0, i32 0} ; [ DW_TAG_subroutine_type ]
!667 = metadata !{metadata !378, metadata !362, metadata !475, metadata !378}
!668 = metadata !{i32 786478, i32 0, metadata !283, metadata !"find", metadata !"find", metadata !"_ZNKSs4findEPKcy", metadata !287, i32 1781, metadata !669, i1 false, i1 false, i32 0, i32 0, null, i32 256, i1 false, null, null, i32 0, metadata !87, i32 1781} ; [ DW_TAG_subprogram ]
!669 = metadata !{i32 786453, i32 0, metadata !"", i32 0, i32 0, i64 0, i64 0, i64 0, i32 0, null, metadata !670, i32 0, i32 0} ; [ DW_TAG_subroutine_type ]
!670 = metadata !{metadata !378, metadata !362, metadata !151, metadata !378}
!671 = metadata !{i32 786478, i32 0, metadata !283, metadata !"find", metadata !"find", metadata !"_ZNKSs4findEcy", metadata !287, i32 1798, metadata !672, i1 false, i1 false, i32 0, i32 0, null, i32 256, i1 false, null, null, i32 0, metadata !87, i32 1798} ; [ DW_TAG_subprogram ]
!672 = metadata !{i32 786453, i32 0, metadata !"", i32 0, i32 0, i64 0, i64 0, i64 0, i32 0, null, metadata !673, i32 0, i32 0} ; [ DW_TAG_subroutine_type ]
!673 = metadata !{metadata !378, metadata !362, metadata !153, metadata !378}
!674 = metadata !{i32 786478, i32 0, metadata !283, metadata !"rfind", metadata !"rfind", metadata !"_ZNKSs5rfindERKSsy", metadata !287, i32 1811, metadata !666, i1 false, i1 false, i32 0, i32 0, null, i32 256, i1 false, null, null, i32 0, metadata !87, i32 1811} ; [ DW_TAG_subprogram ]
!675 = metadata !{i32 786478, i32 0, metadata !283, metadata !"rfind", metadata !"rfind", metadata !"_ZNKSs5rfindEPKcyy", metadata !287, i32 1826, metadata !663, i1 false, i1 false, i32 0, i32 0, null, i32 256, i1 false, null, null, i32 0, metadata !87, i32 1826} ; [ DW_TAG_subprogram ]
!676 = metadata !{i32 786478, i32 0, metadata !283, metadata !"rfind", metadata !"rfind", metadata !"_ZNKSs5rfindEPKcy", metadata !287, i32 1839, metadata !669, i1 false, i1 false, i32 0, i32 0, null, i32 256, i1 false, null, null, i32 0, metadata !87, i32 1839} ; [ DW_TAG_subprogram ]
!677 = metadata !{i32 786478, i32 0, metadata !283, metadata !"rfind", metadata !"rfind", metadata !"_ZNKSs5rfindEcy", metadata !287, i32 1856, metadata !672, i1 false, i1 false, i32 0, i32 0, null, i32 256, i1 false, null, null, i32 0, metadata !87, i32 1856} ; [ DW_TAG_subprogram ]
!678 = metadata !{i32 786478, i32 0, metadata !283, metadata !"find_first_of", metadata !"find_first_of", metadata !"_ZNKSs13find_first_ofERKSsy", metadata !287, i32 1869, metadata !666, i1 false, i1 false, i32 0, i32 0, null, i32 256, i1 false, null, null, i32 0, metadata !87, i32 1869} ; [ DW_TAG_subprogram ]
!679 = metadata !{i32 786478, i32 0, metadata !283, metadata !"find_first_of", metadata !"find_first_of", metadata !"_ZNKSs13find_first_ofEPKcyy", metadata !287, i32 1884, metadata !663, i1 false, i1 false, i32 0, i32 0, null, i32 256, i1 false, null, null, i32 0, metadata !87, i32 1884} ; [ DW_TAG_subprogram ]
!680 = metadata !{i32 786478, i32 0, metadata !283, metadata !"find_first_of", metadata !"find_first_of", metadata !"_ZNKSs13find_first_ofEPKcy", metadata !287, i32 1897, metadata !669, i1 false, i1 false, i32 0, i32 0, null, i32 256, i1 false, null, null, i32 0, metadata !87, i32 1897} ; [ DW_TAG_subprogram ]
!681 = metadata !{i32 786478, i32 0, metadata !283, metadata !"find_first_of", metadata !"find_first_of", metadata !"_ZNKSs13find_first_ofEcy", metadata !287, i32 1916, metadata !672, i1 false, i1 false, i32 0, i32 0, null, i32 256, i1 false, null, null, i32 0, metadata !87, i32 1916} ; [ DW_TAG_subprogram ]
!682 = metadata !{i32 786478, i32 0, metadata !283, metadata !"find_last_of", metadata !"find_last_of", metadata !"_ZNKSs12find_last_ofERKSsy", metadata !287, i32 1930, metadata !666, i1 false, i1 false, i32 0, i32 0, null, i32 256, i1 false, null, null, i32 0, metadata !87, i32 1930} ; [ DW_TAG_subprogram ]
!683 = metadata !{i32 786478, i32 0, metadata !283, metadata !"find_last_of", metadata !"find_last_of", metadata !"_ZNKSs12find_last_ofEPKcyy", metadata !287, i32 1945, metadata !663, i1 false, i1 false, i32 0, i32 0, null, i32 256, i1 false, null, null, i32 0, metadata !87, i32 1945} ; [ DW_TAG_subprogram ]
!684 = metadata !{i32 786478, i32 0, metadata !283, metadata !"find_last_of", metadata !"find_last_of", metadata !"_ZNKSs12find_last_ofEPKcy", metadata !287, i32 1958, metadata !669, i1 false, i1 false, i32 0, i32 0, null, i32 256, i1 false, null, null, i32 0, metadata !87, i32 1958} ; [ DW_TAG_subprogram ]
!685 = metadata !{i32 786478, i32 0, metadata !283, metadata !"find_last_of", metadata !"find_last_of", metadata !"_ZNKSs12find_last_ofEcy", metadata !287, i32 1977, metadata !672, i1 false, i1 false, i32 0, i32 0, null, i32 256, i1 false, null, null, i32 0, metadata !87, i32 1977} ; [ DW_TAG_subprogram ]
!686 = metadata !{i32 786478, i32 0, metadata !283, metadata !"find_first_not_of", metadata !"find_first_not_of", metadata !"_ZNKSs17find_first_not_ofERKSsy", metadata !287, i32 1991, metadata !666, i1 false, i1 false, i32 0, i32 0, null, i32 256, i1 false, null, null, i32 0, metadata !87, i32 1991} ; [ DW_TAG_subprogram ]
!687 = metadata !{i32 786478, i32 0, metadata !283, metadata !"find_first_not_of", metadata !"find_first_not_of", metadata !"_ZNKSs17find_first_not_ofEPKcyy", metadata !287, i32 2006, metadata !663, i1 false, i1 false, i32 0, i32 0, null, i32 256, i1 false, null, null, i32 0, metadata !87, i32 2006} ; [ DW_TAG_subprogram ]
!688 = metadata !{i32 786478, i32 0, metadata !283, metadata !"find_first_not_of", metadata !"find_first_not_of", metadata !"_ZNKSs17find_first_not_ofEPKcy", metadata !287, i32 2020, metadata !669, i1 false, i1 false, i32 0, i32 0, null, i32 256, i1 false, null, null, i32 0, metadata !87, i32 2020} ; [ DW_TAG_subprogram ]
!689 = metadata !{i32 786478, i32 0, metadata !283, metadata !"find_first_not_of", metadata !"find_first_not_of", metadata !"_ZNKSs17find_first_not_ofEcy", metadata !287, i32 2037, metadata !672, i1 false, i1 false, i32 0, i32 0, null, i32 256, i1 false, null, null, i32 0, metadata !87, i32 2037} ; [ DW_TAG_subprogram ]
!690 = metadata !{i32 786478, i32 0, metadata !283, metadata !"find_last_not_of", metadata !"find_last_not_of", metadata !"_ZNKSs16find_last_not_ofERKSsy", metadata !287, i32 2050, metadata !666, i1 false, i1 false, i32 0, i32 0, null, i32 256, i1 false, null, null, i32 0, metadata !87, i32 2050} ; [ DW_TAG_subprogram ]
!691 = metadata !{i32 786478, i32 0, metadata !283, metadata !"find_last_not_of", metadata !"find_last_not_of", metadata !"_ZNKSs16find_last_not_ofEPKcyy", metadata !287, i32 2066, metadata !663, i1 false, i1 false, i32 0, i32 0, null, i32 256, i1 false, null, null, i32 0, metadata !87, i32 2066} ; [ DW_TAG_subprogram ]
!692 = metadata !{i32 786478, i32 0, metadata !283, metadata !"find_last_not_of", metadata !"find_last_not_of", metadata !"_ZNKSs16find_last_not_ofEPKcy", metadata !287, i32 2079, metadata !669, i1 false, i1 false, i32 0, i32 0, null, i32 256, i1 false, null, null, i32 0, metadata !87, i32 2079} ; [ DW_TAG_subprogram ]
!693 = metadata !{i32 786478, i32 0, metadata !283, metadata !"find_last_not_of", metadata !"find_last_not_of", metadata !"_ZNKSs16find_last_not_ofEcy", metadata !287, i32 2096, metadata !672, i1 false, i1 false, i32 0, i32 0, null, i32 256, i1 false, null, null, i32 0, metadata !87, i32 2096} ; [ DW_TAG_subprogram ]
!694 = metadata !{i32 786478, i32 0, metadata !283, metadata !"substr", metadata !"substr", metadata !"_ZNKSs6substrEyy", metadata !287, i32 2111, metadata !695, i1 false, i1 false, i32 0, i32 0, null, i32 256, i1 false, null, null, i32 0, metadata !87, i32 2111} ; [ DW_TAG_subprogram ]
!695 = metadata !{i32 786453, i32 0, metadata !"", i32 0, i32 0, i64 0, i64 0, i64 0, i32 0, null, metadata !696, i32 0, i32 0} ; [ DW_TAG_subroutine_type ]
!696 = metadata !{metadata !283, metadata !362, metadata !378, metadata !378}
!697 = metadata !{i32 786478, i32 0, metadata !283, metadata !"compare", metadata !"compare", metadata !"_ZNKSs7compareERKSs", metadata !287, i32 2129, metadata !698, i1 false, i1 false, i32 0, i32 0, null, i32 256, i1 false, null, null, i32 0, metadata !87, i32 2129} ; [ DW_TAG_subprogram ]
!698 = metadata !{i32 786453, i32 0, metadata !"", i32 0, i32 0, i64 0, i64 0, i64 0, i32 0, null, metadata !699, i32 0, i32 0} ; [ DW_TAG_subroutine_type ]
!699 = metadata !{metadata !56, metadata !362, metadata !475}
!700 = metadata !{i32 786478, i32 0, metadata !283, metadata !"compare", metadata !"compare", metadata !"_ZNKSs7compareEyyRKSs", metadata !287, i32 2159, metadata !701, i1 false, i1 false, i32 0, i32 0, null, i32 256, i1 false, null, null, i32 0, metadata !87, i32 2159} ; [ DW_TAG_subprogram ]
!701 = metadata !{i32 786453, i32 0, metadata !"", i32 0, i32 0, i64 0, i64 0, i64 0, i32 0, null, metadata !702, i32 0, i32 0} ; [ DW_TAG_subroutine_type ]
!702 = metadata !{metadata !56, metadata !362, metadata !378, metadata !378, metadata !475}
!703 = metadata !{i32 786478, i32 0, metadata !283, metadata !"compare", metadata !"compare", metadata !"_ZNKSs7compareEyyRKSsyy", metadata !287, i32 2183, metadata !704, i1 false, i1 false, i32 0, i32 0, null, i32 256, i1 false, null, null, i32 0, metadata !87, i32 2183} ; [ DW_TAG_subprogram ]
!704 = metadata !{i32 786453, i32 0, metadata !"", i32 0, i32 0, i64 0, i64 0, i64 0, i32 0, null, metadata !705, i32 0, i32 0} ; [ DW_TAG_subroutine_type ]
!705 = metadata !{metadata !56, metadata !362, metadata !378, metadata !378, metadata !475, metadata !378, metadata !378}
!706 = metadata !{i32 786478, i32 0, metadata !283, metadata !"compare", metadata !"compare", metadata !"_ZNKSs7compareEPKc", metadata !287, i32 2201, metadata !707, i1 false, i1 false, i32 0, i32 0, null, i32 256, i1 false, null, null, i32 0, metadata !87, i32 2201} ; [ DW_TAG_subprogram ]
!707 = metadata !{i32 786453, i32 0, metadata !"", i32 0, i32 0, i64 0, i64 0, i64 0, i32 0, null, metadata !708, i32 0, i32 0} ; [ DW_TAG_subroutine_type ]
!708 = metadata !{metadata !56, metadata !362, metadata !151}
!709 = metadata !{i32 786478, i32 0, metadata !283, metadata !"compare", metadata !"compare", metadata !"_ZNKSs7compareEyyPKc", metadata !287, i32 2224, metadata !710, i1 false, i1 false, i32 0, i32 0, null, i32 256, i1 false, null, null, i32 0, metadata !87, i32 2224} ; [ DW_TAG_subprogram ]
!710 = metadata !{i32 786453, i32 0, metadata !"", i32 0, i32 0, i64 0, i64 0, i64 0, i32 0, null, metadata !711, i32 0, i32 0} ; [ DW_TAG_subroutine_type ]
!711 = metadata !{metadata !56, metadata !362, metadata !378, metadata !378, metadata !151}
!712 = metadata !{i32 786478, i32 0, metadata !283, metadata !"compare", metadata !"compare", metadata !"_ZNKSs7compareEyyPKcy", metadata !287, i32 2249, metadata !713, i1 false, i1 false, i32 0, i32 0, null, i32 256, i1 false, null, null, i32 0, metadata !87, i32 2249} ; [ DW_TAG_subprogram ]
!713 = metadata !{i32 786453, i32 0, metadata !"", i32 0, i32 0, i64 0, i64 0, i64 0, i32 0, null, metadata !714, i32 0, i32 0} ; [ DW_TAG_subroutine_type ]
!714 = metadata !{metadata !56, metadata !362, metadata !378, metadata !378, metadata !151, metadata !378}
!715 = metadata !{metadata !716, metadata !717, metadata !770}
!716 = metadata !{i32 786479, null, metadata !"_CharT", metadata !153, null, i32 0, i32 0} ; [ DW_TAG_template_type_parameter ]
!717 = metadata !{i32 786479, null, metadata !"_Traits", metadata !718, null, i32 0, i32 0} ; [ DW_TAG_template_type_parameter ]
!718 = metadata !{i32 786434, metadata !719, metadata !"char_traits<char>", metadata !720, i32 236, i64 8, i64 8, i32 0, i32 0, null, metadata !721, i32 0, null, metadata !769} ; [ DW_TAG_class_type ]
!719 = metadata !{i32 786489, null, metadata !"std", metadata !720, i32 214} ; [ DW_TAG_namespace ]
!720 = metadata !{i32 786473, metadata !"C:/Xilinx/Vivado/2017.4/win64/tools/clang/bin\5C..\5Clib\5Cclang\5C3.1/../../../include/c++/4.5.2\5Cbits/char_traits.h", metadata !"C:\5CUsers\5Czisk\5CDesktop\5C2", null} ; [ DW_TAG_file_type ]
!721 = metadata !{metadata !722, metadata !729, metadata !732, metadata !733, metadata !737, metadata !740, metadata !743, metadata !747, metadata !748, metadata !751, metadata !757, metadata !760, metadata !763, metadata !766}
!722 = metadata !{i32 786478, i32 0, metadata !718, metadata !"assign", metadata !"assign", metadata !"_ZNSt11char_traitsIcE6assignERcRKc", metadata !720, i32 245, metadata !723, i1 false, i1 false, i32 0, i32 0, null, i32 256, i1 false, null, null, i32 0, metadata !87, i32 245} ; [ DW_TAG_subprogram ]
!723 = metadata !{i32 786453, i32 0, metadata !"", i32 0, i32 0, i64 0, i64 0, i64 0, i32 0, null, metadata !724, i32 0, i32 0} ; [ DW_TAG_subroutine_type ]
!724 = metadata !{null, metadata !725, metadata !727}
!725 = metadata !{i32 786448, null, null, null, i32 0, i64 0, i64 0, i64 0, i32 0, metadata !726} ; [ DW_TAG_reference_type ]
!726 = metadata !{i32 786454, metadata !718, metadata !"char_type", metadata !720, i32 238, i64 0, i64 0, i64 0, i32 0, metadata !153} ; [ DW_TAG_typedef ]
!727 = metadata !{i32 786448, null, null, null, i32 0, i64 0, i64 0, i64 0, i32 0, metadata !728} ; [ DW_TAG_reference_type ]
!728 = metadata !{i32 786470, null, metadata !"", null, i32 0, i64 0, i64 0, i64 0, i32 0, metadata !726} ; [ DW_TAG_const_type ]
!729 = metadata !{i32 786478, i32 0, metadata !718, metadata !"eq", metadata !"eq", metadata !"_ZNSt11char_traitsIcE2eqERKcS2_", metadata !720, i32 249, metadata !730, i1 false, i1 false, i32 0, i32 0, null, i32 256, i1 false, null, null, i32 0, metadata !87, i32 249} ; [ DW_TAG_subprogram ]
!730 = metadata !{i32 786453, i32 0, metadata !"", i32 0, i32 0, i64 0, i64 0, i64 0, i32 0, null, metadata !731, i32 0, i32 0} ; [ DW_TAG_subroutine_type ]
!731 = metadata !{metadata !213, metadata !727, metadata !727}
!732 = metadata !{i32 786478, i32 0, metadata !718, metadata !"lt", metadata !"lt", metadata !"_ZNSt11char_traitsIcE2ltERKcS2_", metadata !720, i32 253, metadata !730, i1 false, i1 false, i32 0, i32 0, null, i32 256, i1 false, null, null, i32 0, metadata !87, i32 253} ; [ DW_TAG_subprogram ]
!733 = metadata !{i32 786478, i32 0, metadata !718, metadata !"compare", metadata !"compare", metadata !"_ZNSt11char_traitsIcE7compareEPKcS2_y", metadata !720, i32 257, metadata !734, i1 false, i1 false, i32 0, i32 0, null, i32 256, i1 false, null, null, i32 0, metadata !87, i32 257} ; [ DW_TAG_subprogram ]
!734 = metadata !{i32 786453, i32 0, metadata !"", i32 0, i32 0, i64 0, i64 0, i64 0, i32 0, null, metadata !735, i32 0, i32 0} ; [ DW_TAG_subroutine_type ]
!735 = metadata !{metadata !56, metadata !736, metadata !736, metadata !138}
!736 = metadata !{i32 786447, null, metadata !"", null, i32 0, i64 64, i64 64, i64 0, i32 0, metadata !728} ; [ DW_TAG_pointer_type ]
!737 = metadata !{i32 786478, i32 0, metadata !718, metadata !"length", metadata !"length", metadata !"_ZNSt11char_traitsIcE6lengthEPKc", metadata !720, i32 261, metadata !738, i1 false, i1 false, i32 0, i32 0, null, i32 256, i1 false, null, null, i32 0, metadata !87, i32 261} ; [ DW_TAG_subprogram ]
!738 = metadata !{i32 786453, i32 0, metadata !"", i32 0, i32 0, i64 0, i64 0, i64 0, i32 0, null, metadata !739, i32 0, i32 0} ; [ DW_TAG_subroutine_type ]
!739 = metadata !{metadata !138, metadata !736}
!740 = metadata !{i32 786478, i32 0, metadata !718, metadata !"find", metadata !"find", metadata !"_ZNSt11char_traitsIcE4findEPKcyRS1_", metadata !720, i32 265, metadata !741, i1 false, i1 false, i32 0, i32 0, null, i32 256, i1 false, null, null, i32 0, metadata !87, i32 265} ; [ DW_TAG_subprogram ]
!741 = metadata !{i32 786453, i32 0, metadata !"", i32 0, i32 0, i64 0, i64 0, i64 0, i32 0, null, metadata !742, i32 0, i32 0} ; [ DW_TAG_subroutine_type ]
!742 = metadata !{metadata !736, metadata !736, metadata !138, metadata !727}
!743 = metadata !{i32 786478, i32 0, metadata !718, metadata !"move", metadata !"move", metadata !"_ZNSt11char_traitsIcE4moveEPcPKcy", metadata !720, i32 269, metadata !744, i1 false, i1 false, i32 0, i32 0, null, i32 256, i1 false, null, null, i32 0, metadata !87, i32 269} ; [ DW_TAG_subprogram ]
!744 = metadata !{i32 786453, i32 0, metadata !"", i32 0, i32 0, i64 0, i64 0, i64 0, i32 0, null, metadata !745, i32 0, i32 0} ; [ DW_TAG_subroutine_type ]
!745 = metadata !{metadata !746, metadata !746, metadata !736, metadata !138}
!746 = metadata !{i32 786447, null, metadata !"", null, i32 0, i64 64, i64 64, i64 0, i32 0, metadata !726} ; [ DW_TAG_pointer_type ]
!747 = metadata !{i32 786478, i32 0, metadata !718, metadata !"copy", metadata !"copy", metadata !"_ZNSt11char_traitsIcE4copyEPcPKcy", metadata !720, i32 273, metadata !744, i1 false, i1 false, i32 0, i32 0, null, i32 256, i1 false, null, null, i32 0, metadata !87, i32 273} ; [ DW_TAG_subprogram ]
!748 = metadata !{i32 786478, i32 0, metadata !718, metadata !"assign", metadata !"assign", metadata !"_ZNSt11char_traitsIcE6assignEPcyc", metadata !720, i32 277, metadata !749, i1 false, i1 false, i32 0, i32 0, null, i32 256, i1 false, null, null, i32 0, metadata !87, i32 277} ; [ DW_TAG_subprogram ]
!749 = metadata !{i32 786453, i32 0, metadata !"", i32 0, i32 0, i64 0, i64 0, i64 0, i32 0, null, metadata !750, i32 0, i32 0} ; [ DW_TAG_subroutine_type ]
!750 = metadata !{metadata !746, metadata !746, metadata !138, metadata !726}
!751 = metadata !{i32 786478, i32 0, metadata !718, metadata !"to_char_type", metadata !"to_char_type", metadata !"_ZNSt11char_traitsIcE12to_char_typeERKi", metadata !720, i32 281, metadata !752, i1 false, i1 false, i32 0, i32 0, null, i32 256, i1 false, null, null, i32 0, metadata !87, i32 281} ; [ DW_TAG_subprogram ]
!752 = metadata !{i32 786453, i32 0, metadata !"", i32 0, i32 0, i64 0, i64 0, i64 0, i32 0, null, metadata !753, i32 0, i32 0} ; [ DW_TAG_subroutine_type ]
!753 = metadata !{metadata !726, metadata !754}
!754 = metadata !{i32 786448, null, null, null, i32 0, i64 0, i64 0, i64 0, i32 0, metadata !755} ; [ DW_TAG_reference_type ]
!755 = metadata !{i32 786470, null, metadata !"", null, i32 0, i64 0, i64 0, i64 0, i32 0, metadata !756} ; [ DW_TAG_const_type ]
!756 = metadata !{i32 786454, metadata !718, metadata !"int_type", metadata !720, i32 239, i64 0, i64 0, i64 0, i32 0, metadata !56} ; [ DW_TAG_typedef ]
!757 = metadata !{i32 786478, i32 0, metadata !718, metadata !"to_int_type", metadata !"to_int_type", metadata !"_ZNSt11char_traitsIcE11to_int_typeERKc", metadata !720, i32 287, metadata !758, i1 false, i1 false, i32 0, i32 0, null, i32 256, i1 false, null, null, i32 0, metadata !87, i32 287} ; [ DW_TAG_subprogram ]
!758 = metadata !{i32 786453, i32 0, metadata !"", i32 0, i32 0, i64 0, i64 0, i64 0, i32 0, null, metadata !759, i32 0, i32 0} ; [ DW_TAG_subroutine_type ]
!759 = metadata !{metadata !756, metadata !727}
!760 = metadata !{i32 786478, i32 0, metadata !718, metadata !"eq_int_type", metadata !"eq_int_type", metadata !"_ZNSt11char_traitsIcE11eq_int_typeERKiS2_", metadata !720, i32 291, metadata !761, i1 false, i1 false, i32 0, i32 0, null, i32 256, i1 false, null, null, i32 0, metadata !87, i32 291} ; [ DW_TAG_subprogram ]
!761 = metadata !{i32 786453, i32 0, metadata !"", i32 0, i32 0, i64 0, i64 0, i64 0, i32 0, null, metadata !762, i32 0, i32 0} ; [ DW_TAG_subroutine_type ]
!762 = metadata !{metadata !213, metadata !754, metadata !754}
!763 = metadata !{i32 786478, i32 0, metadata !718, metadata !"eof", metadata !"eof", metadata !"_ZNSt11char_traitsIcE3eofEv", metadata !720, i32 295, metadata !764, i1 false, i1 false, i32 0, i32 0, null, i32 256, i1 false, null, null, i32 0, metadata !87, i32 295} ; [ DW_TAG_subprogram ]
!764 = metadata !{i32 786453, i32 0, metadata !"", i32 0, i32 0, i64 0, i64 0, i64 0, i32 0, null, metadata !765, i32 0, i32 0} ; [ DW_TAG_subroutine_type ]
!765 = metadata !{metadata !756}
!766 = metadata !{i32 786478, i32 0, metadata !718, metadata !"not_eof", metadata !"not_eof", metadata !"_ZNSt11char_traitsIcE7not_eofERKi", metadata !720, i32 299, metadata !767, i1 false, i1 false, i32 0, i32 0, null, i32 256, i1 false, null, null, i32 0, metadata !87, i32 299} ; [ DW_TAG_subprogram ]
!767 = metadata !{i32 786453, i32 0, metadata !"", i32 0, i32 0, i64 0, i64 0, i64 0, i32 0, null, metadata !768, i32 0, i32 0} ; [ DW_TAG_subroutine_type ]
!768 = metadata !{metadata !756, metadata !754}
!769 = metadata !{metadata !716}
!770 = metadata !{i32 786479, null, metadata !"_Alloc", metadata !291, null, i32 0, i32 0} ; [ DW_TAG_template_type_parameter ]
!771 = metadata !{i32 786447, i32 0, metadata !"", i32 0, i32 0, i64 64, i64 64, i64 0, i32 64, metadata !263} ; [ DW_TAG_pointer_type ]
!772 = metadata !{i32 786478, i32 0, metadata !114, metadata !"operator==", metadata !"operator==", metadata !"_ZNKSt6localeeqERKS_", metadata !116, i32 224, metadata !773, i1 false, i1 false, i32 0, i32 0, null, i32 256, i1 false, null, null, i32 0, metadata !87, i32 224} ; [ DW_TAG_subprogram ]
!773 = metadata !{i32 786453, i32 0, metadata !"", i32 0, i32 0, i64 0, i64 0, i64 0, i32 0, null, metadata !774, i32 0, i32 0} ; [ DW_TAG_subroutine_type ]
!774 = metadata !{metadata !213, metadata !771, metadata !262}
!775 = metadata !{i32 786478, i32 0, metadata !114, metadata !"operator!=", metadata !"operator!=", metadata !"_ZNKSt6localeneERKS_", metadata !116, i32 233, metadata !773, i1 false, i1 false, i32 0, i32 0, null, i32 256, i1 false, null, null, i32 0, metadata !87, i32 233} ; [ DW_TAG_subprogram ]
!776 = metadata !{i32 786478, i32 0, metadata !114, metadata !"global", metadata !"global", metadata !"_ZNSt6locale6globalERKS_", metadata !116, i32 268, metadata !777, i1 false, i1 false, i32 0, i32 0, null, i32 256, i1 false, null, null, i32 0, metadata !87, i32 268} ; [ DW_TAG_subprogram ]
!777 = metadata !{i32 786453, i32 0, metadata !"", i32 0, i32 0, i64 0, i64 0, i64 0, i32 0, null, metadata !778, i32 0, i32 0} ; [ DW_TAG_subroutine_type ]
!778 = metadata !{metadata !114, metadata !262}
!779 = metadata !{i32 786478, i32 0, metadata !114, metadata !"classic", metadata !"classic", metadata !"_ZNSt6locale7classicEv", metadata !116, i32 274, metadata !780, i1 false, i1 false, i32 0, i32 0, null, i32 256, i1 false, null, null, i32 0, metadata !87, i32 274} ; [ DW_TAG_subprogram ]
!780 = metadata !{i32 786453, i32 0, metadata !"", i32 0, i32 0, i64 0, i64 0, i64 0, i32 0, null, metadata !781, i32 0, i32 0} ; [ DW_TAG_subroutine_type ]
!781 = metadata !{metadata !262}
!782 = metadata !{i32 786478, i32 0, metadata !114, metadata !"locale", metadata !"locale", metadata !"", metadata !116, i32 309, metadata !783, i1 false, i1 false, i32 0, i32 0, null, i32 385, i1 false, null, null, i32 0, metadata !87, i32 309} ; [ DW_TAG_subprogram ]
!783 = metadata !{i32 786453, i32 0, metadata !"", i32 0, i32 0, i64 0, i64 0, i64 0, i32 0, null, metadata !784, i32 0, i32 0} ; [ DW_TAG_subroutine_type ]
!784 = metadata !{null, metadata !258, metadata !119}
!785 = metadata !{i32 786478, i32 0, metadata !114, metadata !"_S_initialize", metadata !"_S_initialize", metadata !"_ZNSt6locale13_S_initializeEv", metadata !116, i32 312, metadata !132, i1 false, i1 false, i32 0, i32 0, null, i32 257, i1 false, null, null, i32 0, metadata !87, i32 312} ; [ DW_TAG_subprogram ]
!786 = metadata !{i32 786478, i32 0, metadata !114, metadata !"_S_initialize_once", metadata !"_S_initialize_once", metadata !"_ZNSt6locale18_S_initialize_onceEv", metadata !116, i32 315, metadata !132, i1 false, i1 false, i32 0, i32 0, null, i32 257, i1 false, null, null, i32 0, metadata !87, i32 315} ; [ DW_TAG_subprogram ]
!787 = metadata !{i32 786478, i32 0, metadata !114, metadata !"_S_normalize_category", metadata !"_S_normalize_category", metadata !"_ZNSt6locale21_S_normalize_categoryEi", metadata !116, i32 318, metadata !788, i1 false, i1 false, i32 0, i32 0, null, i32 257, i1 false, null, null, i32 0, metadata !87, i32 318} ; [ DW_TAG_subprogram ]
!788 = metadata !{i32 786453, i32 0, metadata !"", i32 0, i32 0, i64 0, i64 0, i64 0, i32 0, null, metadata !789, i32 0, i32 0} ; [ DW_TAG_subroutine_type ]
!789 = metadata !{metadata !218, metadata !218}
!790 = metadata !{i32 786478, i32 0, metadata !114, metadata !"_M_coalesce", metadata !"_M_coalesce", metadata !"_ZNSt6locale11_M_coalesceERKS_S1_i", metadata !116, i32 321, metadata !271, i1 false, i1 false, i32 0, i32 0, null, i32 257, i1 false, null, null, i32 0, metadata !87, i32 321} ; [ DW_TAG_subprogram ]
!791 = metadata !{i32 786474, metadata !114, null, metadata !116, i32 0, i64 0, i64 0, i64 0, i32 0, metadata !120} ; [ DW_TAG_friend ]
!792 = metadata !{i32 786474, metadata !114, null, metadata !116, i32 0, i64 0, i64 0, i64 0, i32 0, metadata !127} ; [ DW_TAG_friend ]
!793 = metadata !{i32 786478, i32 0, metadata !49, metadata !"register_callback", metadata !"register_callback", metadata !"_ZNSt8ios_base17register_callbackEPFvNS_5eventERS_iEi", metadata !5, i32 456, metadata !794, i1 false, i1 false, i32 0, i32 0, null, i32 256, i1 false, null, null, i32 0, metadata !87, i32 456} ; [ DW_TAG_subprogram ]
!794 = metadata !{i32 786453, i32 0, metadata !"", i32 0, i32 0, i64 0, i64 0, i64 0, i32 0, null, metadata !795, i32 0, i32 0} ; [ DW_TAG_subroutine_type ]
!795 = metadata !{null, metadata !796, metadata !75, metadata !56}
!796 = metadata !{i32 786447, i32 0, metadata !"", i32 0, i32 0, i64 64, i64 64, i64 0, i32 64, metadata !49} ; [ DW_TAG_pointer_type ]
!797 = metadata !{i32 786478, i32 0, metadata !49, metadata !"_M_call_callbacks", metadata !"_M_call_callbacks", metadata !"_ZNSt8ios_base17_M_call_callbacksENS_5eventE", metadata !5, i32 491, metadata !798, i1 false, i1 false, i32 0, i32 0, null, i32 258, i1 false, null, null, i32 0, metadata !87, i32 491} ; [ DW_TAG_subprogram ]
!798 = metadata !{i32 786453, i32 0, metadata !"", i32 0, i32 0, i64 0, i64 0, i64 0, i32 0, null, metadata !799, i32 0, i32 0} ; [ DW_TAG_subroutine_type ]
!799 = metadata !{null, metadata !796, metadata !48}
!800 = metadata !{i32 786478, i32 0, metadata !49, metadata !"_M_dispose_callbacks", metadata !"_M_dispose_callbacks", metadata !"_ZNSt8ios_base20_M_dispose_callbacksEv", metadata !5, i32 494, metadata !801, i1 false, i1 false, i32 0, i32 0, null, i32 258, i1 false, null, null, i32 0, metadata !87, i32 494} ; [ DW_TAG_subprogram ]
!801 = metadata !{i32 786453, i32 0, metadata !"", i32 0, i32 0, i64 0, i64 0, i64 0, i32 0, null, metadata !802, i32 0, i32 0} ; [ DW_TAG_subroutine_type ]
!802 = metadata !{null, metadata !796}
!803 = metadata !{i32 786478, i32 0, metadata !49, metadata !"_M_grow_words", metadata !"_M_grow_words", metadata !"_ZNSt8ios_base13_M_grow_wordsEib", metadata !5, i32 517, metadata !804, i1 false, i1 false, i32 0, i32 0, null, i32 258, i1 false, null, null, i32 0, metadata !87, i32 517} ; [ DW_TAG_subprogram ]
!804 = metadata !{i32 786453, i32 0, metadata !"", i32 0, i32 0, i64 0, i64 0, i64 0, i32 0, null, metadata !805, i32 0, i32 0} ; [ DW_TAG_subroutine_type ]
!805 = metadata !{metadata !806, metadata !796, metadata !56, metadata !213}
!806 = metadata !{i32 786448, null, null, null, i32 0, i64 0, i64 0, i64 0, i32 0, metadata !96} ; [ DW_TAG_reference_type ]
!807 = metadata !{i32 786478, i32 0, metadata !49, metadata !"_M_init", metadata !"_M_init", metadata !"_ZNSt8ios_base7_M_initEv", metadata !5, i32 523, metadata !801, i1 false, i1 false, i32 0, i32 0, null, i32 258, i1 false, null, null, i32 0, metadata !87, i32 523} ; [ DW_TAG_subprogram ]
!808 = metadata !{i32 786478, i32 0, metadata !49, metadata !"flags", metadata !"flags", metadata !"_ZNKSt8ios_base5flagsEv", metadata !5, i32 549, metadata !809, i1 false, i1 false, i32 0, i32 0, null, i32 256, i1 false, null, null, i32 0, metadata !87, i32 549} ; [ DW_TAG_subprogram ]
!809 = metadata !{i32 786453, i32 0, metadata !"", i32 0, i32 0, i64 0, i64 0, i64 0, i32 0, null, metadata !810, i32 0, i32 0} ; [ DW_TAG_subroutine_type ]
!810 = metadata !{metadata !65, metadata !811}
!811 = metadata !{i32 786447, i32 0, metadata !"", i32 0, i32 0, i64 64, i64 64, i64 0, i32 64, metadata !812} ; [ DW_TAG_pointer_type ]
!812 = metadata !{i32 786470, null, metadata !"", null, i32 0, i64 0, i64 0, i64 0, i32 0, metadata !49} ; [ DW_TAG_const_type ]
!813 = metadata !{i32 786478, i32 0, metadata !49, metadata !"flags", metadata !"flags", metadata !"_ZNSt8ios_base5flagsESt13_Ios_Fmtflags", metadata !5, i32 560, metadata !814, i1 false, i1 false, i32 0, i32 0, null, i32 256, i1 false, null, null, i32 0, metadata !87, i32 560} ; [ DW_TAG_subprogram ]
!814 = metadata !{i32 786453, i32 0, metadata !"", i32 0, i32 0, i64 0, i64 0, i64 0, i32 0, null, metadata !815, i32 0, i32 0} ; [ DW_TAG_subroutine_type ]
!815 = metadata !{metadata !65, metadata !796, metadata !65}
!816 = metadata !{i32 786478, i32 0, metadata !49, metadata !"setf", metadata !"setf", metadata !"_ZNSt8ios_base4setfESt13_Ios_Fmtflags", metadata !5, i32 576, metadata !814, i1 false, i1 false, i32 0, i32 0, null, i32 256, i1 false, null, null, i32 0, metadata !87, i32 576} ; [ DW_TAG_subprogram ]
!817 = metadata !{i32 786478, i32 0, metadata !49, metadata !"setf", metadata !"setf", metadata !"_ZNSt8ios_base4setfESt13_Ios_FmtflagsS0_", metadata !5, i32 593, metadata !818, i1 false, i1 false, i32 0, i32 0, null, i32 256, i1 false, null, null, i32 0, metadata !87, i32 593} ; [ DW_TAG_subprogram ]
!818 = metadata !{i32 786453, i32 0, metadata !"", i32 0, i32 0, i64 0, i64 0, i64 0, i32 0, null, metadata !819, i32 0, i32 0} ; [ DW_TAG_subroutine_type ]
!819 = metadata !{metadata !65, metadata !796, metadata !65, metadata !65}
!820 = metadata !{i32 786478, i32 0, metadata !49, metadata !"unsetf", metadata !"unsetf", metadata !"_ZNSt8ios_base6unsetfESt13_Ios_Fmtflags", metadata !5, i32 608, metadata !821, i1 false, i1 false, i32 0, i32 0, null, i32 256, i1 false, null, null, i32 0, metadata !87, i32 608} ; [ DW_TAG_subprogram ]
!821 = metadata !{i32 786453, i32 0, metadata !"", i32 0, i32 0, i64 0, i64 0, i64 0, i32 0, null, metadata !822, i32 0, i32 0} ; [ DW_TAG_subroutine_type ]
!822 = metadata !{null, metadata !796, metadata !65}
!823 = metadata !{i32 786478, i32 0, metadata !49, metadata !"precision", metadata !"precision", metadata !"_ZNKSt8ios_base9precisionEv", metadata !5, i32 619, metadata !824, i1 false, i1 false, i32 0, i32 0, null, i32 256, i1 false, null, null, i32 0, metadata !87, i32 619} ; [ DW_TAG_subprogram ]
!824 = metadata !{i32 786453, i32 0, metadata !"", i32 0, i32 0, i64 0, i64 0, i64 0, i32 0, null, metadata !825, i32 0, i32 0} ; [ DW_TAG_subroutine_type ]
!825 = metadata !{metadata !58, metadata !811}
!826 = metadata !{i32 786478, i32 0, metadata !49, metadata !"precision", metadata !"precision", metadata !"_ZNSt8ios_base9precisionEx", metadata !5, i32 628, metadata !827, i1 false, i1 false, i32 0, i32 0, null, i32 256, i1 false, null, null, i32 0, metadata !87, i32 628} ; [ DW_TAG_subprogram ]
!827 = metadata !{i32 786453, i32 0, metadata !"", i32 0, i32 0, i64 0, i64 0, i64 0, i32 0, null, metadata !828, i32 0, i32 0} ; [ DW_TAG_subroutine_type ]
!828 = metadata !{metadata !58, metadata !796, metadata !58}
!829 = metadata !{i32 786478, i32 0, metadata !49, metadata !"width", metadata !"width", metadata !"_ZNKSt8ios_base5widthEv", metadata !5, i32 642, metadata !824, i1 false, i1 false, i32 0, i32 0, null, i32 256, i1 false, null, null, i32 0, metadata !87, i32 642} ; [ DW_TAG_subprogram ]
!830 = metadata !{i32 786478, i32 0, metadata !49, metadata !"width", metadata !"width", metadata !"_ZNSt8ios_base5widthEx", metadata !5, i32 651, metadata !827, i1 false, i1 false, i32 0, i32 0, null, i32 256, i1 false, null, null, i32 0, metadata !87, i32 651} ; [ DW_TAG_subprogram ]
!831 = metadata !{i32 786478, i32 0, metadata !49, metadata !"sync_with_stdio", metadata !"sync_with_stdio", metadata !"_ZNSt8ios_base15sync_with_stdioEb", metadata !5, i32 670, metadata !832, i1 false, i1 false, i32 0, i32 0, null, i32 256, i1 false, null, null, i32 0, metadata !87, i32 670} ; [ DW_TAG_subprogram ]
!832 = metadata !{i32 786453, i32 0, metadata !"", i32 0, i32 0, i64 0, i64 0, i64 0, i32 0, null, metadata !833, i32 0, i32 0} ; [ DW_TAG_subroutine_type ]
!833 = metadata !{metadata !213, metadata !213}
!834 = metadata !{i32 786478, i32 0, metadata !49, metadata !"imbue", metadata !"imbue", metadata !"_ZNSt8ios_base5imbueERKSt6locale", metadata !5, i32 682, metadata !835, i1 false, i1 false, i32 0, i32 0, null, i32 256, i1 false, null, null, i32 0, metadata !87, i32 682} ; [ DW_TAG_subprogram ]
!835 = metadata !{i32 786453, i32 0, metadata !"", i32 0, i32 0, i64 0, i64 0, i64 0, i32 0, null, metadata !836, i32 0, i32 0} ; [ DW_TAG_subroutine_type ]
!836 = metadata !{metadata !114, metadata !796, metadata !262}
!837 = metadata !{i32 786478, i32 0, metadata !49, metadata !"getloc", metadata !"getloc", metadata !"_ZNKSt8ios_base6getlocEv", metadata !5, i32 693, metadata !838, i1 false, i1 false, i32 0, i32 0, null, i32 256, i1 false, null, null, i32 0, metadata !87, i32 693} ; [ DW_TAG_subprogram ]
!838 = metadata !{i32 786453, i32 0, metadata !"", i32 0, i32 0, i64 0, i64 0, i64 0, i32 0, null, metadata !839, i32 0, i32 0} ; [ DW_TAG_subroutine_type ]
!839 = metadata !{metadata !114, metadata !811}
!840 = metadata !{i32 786478, i32 0, metadata !49, metadata !"_M_getloc", metadata !"_M_getloc", metadata !"_ZNKSt8ios_base9_M_getlocEv", metadata !5, i32 704, metadata !841, i1 false, i1 false, i32 0, i32 0, null, i32 256, i1 false, null, null, i32 0, metadata !87, i32 704} ; [ DW_TAG_subprogram ]
!841 = metadata !{i32 786453, i32 0, metadata !"", i32 0, i32 0, i64 0, i64 0, i64 0, i32 0, null, metadata !842, i32 0, i32 0} ; [ DW_TAG_subroutine_type ]
!842 = metadata !{metadata !262, metadata !811}
!843 = metadata !{i32 786478, i32 0, metadata !49, metadata !"xalloc", metadata !"xalloc", metadata !"_ZNSt8ios_base6xallocEv", metadata !5, i32 723, metadata !54, i1 false, i1 false, i32 0, i32 0, null, i32 256, i1 false, null, null, i32 0, metadata !87, i32 723} ; [ DW_TAG_subprogram ]
!844 = metadata !{i32 786478, i32 0, metadata !49, metadata !"iword", metadata !"iword", metadata !"_ZNSt8ios_base5iwordEi", metadata !5, i32 739, metadata !845, i1 false, i1 false, i32 0, i32 0, null, i32 256, i1 false, null, null, i32 0, metadata !87, i32 739} ; [ DW_TAG_subprogram ]
!845 = metadata !{i32 786453, i32 0, metadata !"", i32 0, i32 0, i64 0, i64 0, i64 0, i32 0, null, metadata !846, i32 0, i32 0} ; [ DW_TAG_subroutine_type ]
!846 = metadata !{metadata !847, metadata !796, metadata !56}
!847 = metadata !{i32 786448, null, null, null, i32 0, i64 0, i64 0, i64 0, i32 0, metadata !101} ; [ DW_TAG_reference_type ]
!848 = metadata !{i32 786478, i32 0, metadata !49, metadata !"pword", metadata !"pword", metadata !"_ZNSt8ios_base5pwordEi", metadata !5, i32 760, metadata !849, i1 false, i1 false, i32 0, i32 0, null, i32 256, i1 false, null, null, i32 0, metadata !87, i32 760} ; [ DW_TAG_subprogram ]
!849 = metadata !{i32 786453, i32 0, metadata !"", i32 0, i32 0, i64 0, i64 0, i64 0, i32 0, null, metadata !850, i32 0, i32 0} ; [ DW_TAG_subroutine_type ]
!850 = metadata !{metadata !851, metadata !796, metadata !56}
!851 = metadata !{i32 786448, null, null, null, i32 0, i64 0, i64 0, i64 0, i32 0, metadata !99} ; [ DW_TAG_reference_type ]
!852 = metadata !{i32 786478, i32 0, metadata !49, metadata !"~ios_base", metadata !"~ios_base", metadata !"", metadata !5, i32 776, metadata !801, i1 false, i1 false, i32 1, i32 0, metadata !49, i32 256, i1 false, null, null, i32 0, metadata !87, i32 776} ; [ DW_TAG_subprogram ]
!853 = metadata !{i32 786478, i32 0, metadata !49, metadata !"ios_base", metadata !"ios_base", metadata !"", metadata !5, i32 779, metadata !801, i1 false, i1 false, i32 0, i32 0, null, i32 258, i1 false, null, null, i32 0, metadata !87, i32 779} ; [ DW_TAG_subprogram ]
!854 = metadata !{i32 786478, i32 0, metadata !49, metadata !"ios_base", metadata !"ios_base", metadata !"", metadata !5, i32 784, metadata !855, i1 false, i1 false, i32 0, i32 0, null, i32 257, i1 false, null, null, i32 0, metadata !87, i32 784} ; [ DW_TAG_subprogram ]
!855 = metadata !{i32 786453, i32 0, metadata !"", i32 0, i32 0, i64 0, i64 0, i64 0, i32 0, null, metadata !856, i32 0, i32 0} ; [ DW_TAG_subroutine_type ]
!856 = metadata !{null, metadata !796, metadata !857}
!857 = metadata !{i32 786448, null, null, null, i32 0, i64 0, i64 0, i64 0, i32 0, metadata !812} ; [ DW_TAG_reference_type ]
!858 = metadata !{i32 786478, i32 0, metadata !49, metadata !"operator=", metadata !"operator=", metadata !"_ZNSt8ios_baseaSERKS_", metadata !5, i32 787, metadata !859, i1 false, i1 false, i32 0, i32 0, null, i32 257, i1 false, null, null, i32 0, metadata !87, i32 787} ; [ DW_TAG_subprogram ]
!859 = metadata !{i32 786453, i32 0, metadata !"", i32 0, i32 0, i64 0, i64 0, i64 0, i32 0, null, metadata !860, i32 0, i32 0} ; [ DW_TAG_subroutine_type ]
!860 = metadata !{metadata !79, metadata !796, metadata !857}
!861 = metadata !{metadata !862, metadata !863, metadata !864}
!862 = metadata !{i32 786472, metadata !"erase_event", i64 0} ; [ DW_TAG_enumerator ]
!863 = metadata !{i32 786472, metadata !"imbue_event", i64 1} ; [ DW_TAG_enumerator ]
!864 = metadata !{i32 786472, metadata !"copyfmt_event", i64 2} ; [ DW_TAG_enumerator ]
!865 = metadata !{i32 786436, null, metadata !"BaseMode", metadata !866, i32 603, i64 5, i64 8, i32 0, i32 0, null, metadata !867, i32 0, i32 0} ; [ DW_TAG_enumeration_type ]
!866 = metadata !{i32 786473, metadata !"C:/Xilinx/Vivado/2017.4/common/technology/autopilot/ap_int_syn.h", metadata !"C:\5CUsers\5Czisk\5CDesktop\5C2", null} ; [ DW_TAG_file_type ]
!867 = metadata !{metadata !868, metadata !869, metadata !870, metadata !871}
!868 = metadata !{i32 786472, metadata !"SC_BIN", i64 2} ; [ DW_TAG_enumerator ]
!869 = metadata !{i32 786472, metadata !"SC_OCT", i64 8} ; [ DW_TAG_enumerator ]
!870 = metadata !{i32 786472, metadata !"SC_DEC", i64 10} ; [ DW_TAG_enumerator ]
!871 = metadata !{i32 786472, metadata !"SC_HEX", i64 16} ; [ DW_TAG_enumerator ]
!872 = metadata !{metadata !873}
!873 = metadata !{i32 0}
!874 = metadata !{metadata !875}
!875 = metadata !{metadata !876, metadata !1565, metadata !1566, metadata !1569, metadata !2345, metadata !2653, metadata !2654, metadata !2655, metadata !2656, metadata !2662, metadata !2663, metadata !2664, metadata !2665, metadata !2666, metadata !2667}
!876 = metadata !{i32 786478, i32 0, metadata !877, metadata !"okanonas", metadata !"okanonas", metadata !"_Z8okanonas7ap_uintILi32EERS0_", metadata !877, i32 4, metadata !878, i1 false, i1 true, i32 0, i32 0, null, i32 256, i1 false, void (%struct.ap_uint.14*, %struct.ap_uint.14*)* @okanonas, null, null, metadata !87, i32 4} ; [ DW_TAG_subprogram ]
!877 = metadata !{i32 786473, metadata !"my_ip_hls/ziskasrules.cpp", metadata !"C:\5CUsers\5Czisk\5CDesktop\5C2", null} ; [ DW_TAG_file_type ]
!878 = metadata !{i32 786453, i32 0, metadata !"", i32 0, i32 0, i64 0, i64 0, i64 0, i32 0, null, metadata !879, i32 0, i32 0} ; [ DW_TAG_subroutine_type ]
!879 = metadata !{null, metadata !880, metadata !1564}
!880 = metadata !{i32 786454, null, metadata !"uint32", metadata !877, i32 15, i64 0, i64 0, i64 0, i32 0, metadata !881} ; [ DW_TAG_typedef ]
!881 = metadata !{i32 786434, null, metadata !"ap_uint<32>", metadata !882, i32 183, i64 32, i64 32, i32 0, i32 0, null, metadata !883, i32 0, null, metadata !1563} ; [ DW_TAG_class_type ]
!882 = metadata !{i32 786473, metadata !"C:/Xilinx/Vivado/2017.4/common/technology/autopilot\5Cap_int.h", metadata !"C:\5CUsers\5Czisk\5CDesktop\5C2", null} ; [ DW_TAG_file_type ]
!883 = metadata !{metadata !884, metadata !1492, metadata !1496, metadata !1499, metadata !1502, metadata !1505, metadata !1508, metadata !1511, metadata !1514, metadata !1517, metadata !1520, metadata !1523, metadata !1526, metadata !1529, metadata !1532, metadata !1535, metadata !1538, metadata !1541, metadata !1544, metadata !1551, metadata !1556, metadata !1560}
!884 = metadata !{i32 786460, metadata !881, null, metadata !882, i32 0, i64 0, i64 0, i64 0, i32 0, metadata !885} ; [ DW_TAG_inheritance ]
!885 = metadata !{i32 786434, null, metadata !"ap_int_base<32, false, true>", metadata !866, i32 1453, i64 32, i64 32, i32 0, i32 0, null, metadata !886, i32 0, null, metadata !1491} ; [ DW_TAG_class_type ]
!886 = metadata !{metadata !887, metadata !900, metadata !904, metadata !907, metadata !911, metadata !915, metadata !919, metadata !923, metadata !926, metadata !930, metadata !933, metadata !937, metadata !941, metadata !945, metadata !950, metadata !954, metadata !958, metadata !961, metadata !964, metadata !969, metadata !974, metadata !979, metadata !980, metadata !984, metadata !987, metadata !990, metadata !993, metadata !996, metadata !999, metadata !1002, metadata !1005, metadata !1008, metadata !1011, metadata !1014, metadata !1017, metadata !1026, metadata !1029, metadata !1032, metadata !1035, metadata !1038, metadata !1041, metadata !1044, metadata !1047, metadata !1050, metadata !1053, metadata !1056, metadata !1059, metadata !1062, metadata !1063, metadata !1067, metadata !1070, metadata !1071, metadata !1072, metadata !1073, metadata !1074, metadata !1075, metadata !1078, metadata !1079, metadata !1082, metadata !1083, metadata !1084, metadata !1085, metadata !1086, metadata !1087, metadata !1090, metadata !1091, metadata !1092, metadata !1095, metadata !1096, metadata !1099, metadata !1100, metadata !1394, metadata !1456, metadata !1457, metadata !1460, metadata !1461, metadata !1465, metadata !1466, metadata !1467, metadata !1468, metadata !1471, metadata !1472, metadata !1473, metadata !1474, metadata !1475, metadata !1476, metadata !1477, metadata !1478, metadata !1479, metadata !1480, metadata !1481, metadata !1482, metadata !1485, metadata !1488}
!887 = metadata !{i32 786460, metadata !885, null, metadata !866, i32 0, i64 0, i64 0, i64 0, i32 0, metadata !888} ; [ DW_TAG_inheritance ]
!888 = metadata !{i32 786434, null, metadata !"ssdm_int<32 + 1024 * 0, false>", metadata !889, i32 34, i64 32, i64 32, i32 0, i32 0, null, metadata !890, i32 0, null, metadata !897} ; [ DW_TAG_class_type ]
!889 = metadata !{i32 786473, metadata !"C:/Xilinx/Vivado/2017.4/common/technology/autopilot/etc/autopilot_dt.def", metadata !"C:\5CUsers\5Czisk\5CDesktop\5C2", null} ; [ DW_TAG_file_type ]
!890 = metadata !{metadata !891, metadata !893}
!891 = metadata !{i32 786445, metadata !888, metadata !"V", metadata !889, i32 34, i64 32, i64 32, i64 0, i32 0, metadata !892} ; [ DW_TAG_member ]
!892 = metadata !{i32 786468, null, metadata !"uint32", null, i32 0, i64 32, i64 32, i64 0, i32 0, i32 7} ; [ DW_TAG_base_type ]
!893 = metadata !{i32 786478, i32 0, metadata !888, metadata !"ssdm_int", metadata !"ssdm_int", metadata !"", metadata !889, i32 34, metadata !894, i1 false, i1 false, i32 0, i32 0, null, i32 256, i1 false, null, null, i32 0, metadata !87, i32 34} ; [ DW_TAG_subprogram ]
!894 = metadata !{i32 786453, i32 0, metadata !"", i32 0, i32 0, i64 0, i64 0, i64 0, i32 0, null, metadata !895, i32 0, i32 0} ; [ DW_TAG_subroutine_type ]
!895 = metadata !{null, metadata !896}
!896 = metadata !{i32 786447, i32 0, metadata !"", i32 0, i32 0, i64 64, i64 64, i64 0, i32 64, metadata !888} ; [ DW_TAG_pointer_type ]
!897 = metadata !{metadata !898, metadata !899}
!898 = metadata !{i32 786480, null, metadata !"_AP_N", metadata !56, i64 32, null, i32 0, i32 0} ; [ DW_TAG_template_value_parameter ]
!899 = metadata !{i32 786480, null, metadata !"_AP_S", metadata !213, i64 0, null, i32 0, i32 0} ; [ DW_TAG_template_value_parameter ]
!900 = metadata !{i32 786478, i32 0, metadata !885, metadata !"ap_int_base", metadata !"ap_int_base", metadata !"", metadata !866, i32 1494, metadata !901, i1 false, i1 false, i32 0, i32 0, null, i32 256, i1 false, null, null, i32 0, metadata !87, i32 1494} ; [ DW_TAG_subprogram ]
!901 = metadata !{i32 786453, i32 0, metadata !"", i32 0, i32 0, i64 0, i64 0, i64 0, i32 0, null, metadata !902, i32 0, i32 0} ; [ DW_TAG_subroutine_type ]
!902 = metadata !{null, metadata !903}
!903 = metadata !{i32 786447, i32 0, metadata !"", i32 0, i32 0, i64 64, i64 64, i64 0, i32 64, metadata !885} ; [ DW_TAG_pointer_type ]
!904 = metadata !{i32 786478, i32 0, metadata !885, metadata !"ap_int_base", metadata !"ap_int_base", metadata !"", metadata !866, i32 1516, metadata !905, i1 false, i1 false, i32 0, i32 0, null, i32 384, i1 false, null, null, i32 0, metadata !87, i32 1516} ; [ DW_TAG_subprogram ]
!905 = metadata !{i32 786453, i32 0, metadata !"", i32 0, i32 0, i64 0, i64 0, i64 0, i32 0, null, metadata !906, i32 0, i32 0} ; [ DW_TAG_subroutine_type ]
!906 = metadata !{null, metadata !903, metadata !213}
!907 = metadata !{i32 786478, i32 0, metadata !885, metadata !"ap_int_base", metadata !"ap_int_base", metadata !"", metadata !866, i32 1517, metadata !908, i1 false, i1 false, i32 0, i32 0, null, i32 384, i1 false, null, null, i32 0, metadata !87, i32 1517} ; [ DW_TAG_subprogram ]
!908 = metadata !{i32 786453, i32 0, metadata !"", i32 0, i32 0, i64 0, i64 0, i64 0, i32 0, null, metadata !909, i32 0, i32 0} ; [ DW_TAG_subroutine_type ]
!909 = metadata !{null, metadata !903, metadata !910}
!910 = metadata !{i32 786468, null, metadata !"signed char", null, i32 0, i64 8, i64 8, i64 0, i32 0, i32 6} ; [ DW_TAG_base_type ]
!911 = metadata !{i32 786478, i32 0, metadata !885, metadata !"ap_int_base", metadata !"ap_int_base", metadata !"", metadata !866, i32 1518, metadata !912, i1 false, i1 false, i32 0, i32 0, null, i32 384, i1 false, null, null, i32 0, metadata !87, i32 1518} ; [ DW_TAG_subprogram ]
!912 = metadata !{i32 786453, i32 0, metadata !"", i32 0, i32 0, i64 0, i64 0, i64 0, i32 0, null, metadata !913, i32 0, i32 0} ; [ DW_TAG_subroutine_type ]
!913 = metadata !{null, metadata !903, metadata !914}
!914 = metadata !{i32 786468, null, metadata !"unsigned char", null, i32 0, i64 8, i64 8, i64 0, i32 0, i32 8} ; [ DW_TAG_base_type ]
!915 = metadata !{i32 786478, i32 0, metadata !885, metadata !"ap_int_base", metadata !"ap_int_base", metadata !"", metadata !866, i32 1519, metadata !916, i1 false, i1 false, i32 0, i32 0, null, i32 384, i1 false, null, null, i32 0, metadata !87, i32 1519} ; [ DW_TAG_subprogram ]
!916 = metadata !{i32 786453, i32 0, metadata !"", i32 0, i32 0, i64 0, i64 0, i64 0, i32 0, null, metadata !917, i32 0, i32 0} ; [ DW_TAG_subroutine_type ]
!917 = metadata !{null, metadata !903, metadata !918}
!918 = metadata !{i32 786468, null, metadata !"short", null, i32 0, i64 16, i64 16, i64 0, i32 0, i32 5} ; [ DW_TAG_base_type ]
!919 = metadata !{i32 786478, i32 0, metadata !885, metadata !"ap_int_base", metadata !"ap_int_base", metadata !"", metadata !866, i32 1520, metadata !920, i1 false, i1 false, i32 0, i32 0, null, i32 384, i1 false, null, null, i32 0, metadata !87, i32 1520} ; [ DW_TAG_subprogram ]
!920 = metadata !{i32 786453, i32 0, metadata !"", i32 0, i32 0, i64 0, i64 0, i64 0, i32 0, null, metadata !921, i32 0, i32 0} ; [ DW_TAG_subroutine_type ]
!921 = metadata !{null, metadata !903, metadata !922}
!922 = metadata !{i32 786468, null, metadata !"unsigned short", null, i32 0, i64 16, i64 16, i64 0, i32 0, i32 7} ; [ DW_TAG_base_type ]
!923 = metadata !{i32 786478, i32 0, metadata !885, metadata !"ap_int_base", metadata !"ap_int_base", metadata !"", metadata !866, i32 1521, metadata !924, i1 false, i1 false, i32 0, i32 0, null, i32 384, i1 false, null, null, i32 0, metadata !87, i32 1521} ; [ DW_TAG_subprogram ]
!924 = metadata !{i32 786453, i32 0, metadata !"", i32 0, i32 0, i64 0, i64 0, i64 0, i32 0, null, metadata !925, i32 0, i32 0} ; [ DW_TAG_subroutine_type ]
!925 = metadata !{null, metadata !903, metadata !56}
!926 = metadata !{i32 786478, i32 0, metadata !885, metadata !"ap_int_base", metadata !"ap_int_base", metadata !"", metadata !866, i32 1522, metadata !927, i1 false, i1 false, i32 0, i32 0, null, i32 384, i1 false, null, null, i32 0, metadata !87, i32 1522} ; [ DW_TAG_subprogram ]
!927 = metadata !{i32 786453, i32 0, metadata !"", i32 0, i32 0, i64 0, i64 0, i64 0, i32 0, null, metadata !928, i32 0, i32 0} ; [ DW_TAG_subroutine_type ]
!928 = metadata !{null, metadata !903, metadata !929}
!929 = metadata !{i32 786468, null, metadata !"unsigned int", null, i32 0, i64 32, i64 32, i64 0, i32 0, i32 7} ; [ DW_TAG_base_type ]
!930 = metadata !{i32 786478, i32 0, metadata !885, metadata !"ap_int_base", metadata !"ap_int_base", metadata !"", metadata !866, i32 1523, metadata !931, i1 false, i1 false, i32 0, i32 0, null, i32 384, i1 false, null, null, i32 0, metadata !87, i32 1523} ; [ DW_TAG_subprogram ]
!931 = metadata !{i32 786453, i32 0, metadata !"", i32 0, i32 0, i64 0, i64 0, i64 0, i32 0, null, metadata !932, i32 0, i32 0} ; [ DW_TAG_subroutine_type ]
!932 = metadata !{null, metadata !903, metadata !101}
!933 = metadata !{i32 786478, i32 0, metadata !885, metadata !"ap_int_base", metadata !"ap_int_base", metadata !"", metadata !866, i32 1524, metadata !934, i1 false, i1 false, i32 0, i32 0, null, i32 384, i1 false, null, null, i32 0, metadata !87, i32 1524} ; [ DW_TAG_subprogram ]
!934 = metadata !{i32 786453, i32 0, metadata !"", i32 0, i32 0, i64 0, i64 0, i64 0, i32 0, null, metadata !935, i32 0, i32 0} ; [ DW_TAG_subroutine_type ]
!935 = metadata !{null, metadata !903, metadata !936}
!936 = metadata !{i32 786468, null, metadata !"long unsigned int", null, i32 0, i64 32, i64 32, i64 0, i32 0, i32 7} ; [ DW_TAG_base_type ]
!937 = metadata !{i32 786478, i32 0, metadata !885, metadata !"ap_int_base", metadata !"ap_int_base", metadata !"", metadata !866, i32 1525, metadata !938, i1 false, i1 false, i32 0, i32 0, null, i32 384, i1 false, null, null, i32 0, metadata !87, i32 1525} ; [ DW_TAG_subprogram ]
!938 = metadata !{i32 786453, i32 0, metadata !"", i32 0, i32 0, i64 0, i64 0, i64 0, i32 0, null, metadata !939, i32 0, i32 0} ; [ DW_TAG_subroutine_type ]
!939 = metadata !{null, metadata !903, metadata !940}
!940 = metadata !{i32 786454, null, metadata !"ap_slong", metadata !866, i32 112, i64 0, i64 0, i64 0, i32 0, metadata !62} ; [ DW_TAG_typedef ]
!941 = metadata !{i32 786478, i32 0, metadata !885, metadata !"ap_int_base", metadata !"ap_int_base", metadata !"", metadata !866, i32 1526, metadata !942, i1 false, i1 false, i32 0, i32 0, null, i32 384, i1 false, null, null, i32 0, metadata !87, i32 1526} ; [ DW_TAG_subprogram ]
!942 = metadata !{i32 786453, i32 0, metadata !"", i32 0, i32 0, i64 0, i64 0, i64 0, i32 0, null, metadata !943, i32 0, i32 0} ; [ DW_TAG_subroutine_type ]
!943 = metadata !{null, metadata !903, metadata !944}
!944 = metadata !{i32 786454, null, metadata !"ap_ulong", metadata !866, i32 111, i64 0, i64 0, i64 0, i32 0, metadata !139} ; [ DW_TAG_typedef ]
!945 = metadata !{i32 786478, i32 0, metadata !885, metadata !"ap_int_base", metadata !"ap_int_base", metadata !"", metadata !866, i32 1527, metadata !946, i1 false, i1 false, i32 0, i32 0, null, i32 384, i1 false, null, null, i32 0, metadata !87, i32 1527} ; [ DW_TAG_subprogram ]
!946 = metadata !{i32 786453, i32 0, metadata !"", i32 0, i32 0, i64 0, i64 0, i64 0, i32 0, null, metadata !947, i32 0, i32 0} ; [ DW_TAG_subroutine_type ]
!947 = metadata !{null, metadata !903, metadata !948}
!948 = metadata !{i32 786454, null, metadata !"half", metadata !866, i32 54, i64 0, i64 0, i64 0, i32 0, metadata !949} ; [ DW_TAG_typedef ]
!949 = metadata !{i32 786468, null, metadata !"half", null, i32 0, i64 16, i64 16, i64 0, i32 0, i32 4} ; [ DW_TAG_base_type ]
!950 = metadata !{i32 786478, i32 0, metadata !885, metadata !"ap_int_base", metadata !"ap_int_base", metadata !"", metadata !866, i32 1528, metadata !951, i1 false, i1 false, i32 0, i32 0, null, i32 384, i1 false, null, null, i32 0, metadata !87, i32 1528} ; [ DW_TAG_subprogram ]
!951 = metadata !{i32 786453, i32 0, metadata !"", i32 0, i32 0, i64 0, i64 0, i64 0, i32 0, null, metadata !952, i32 0, i32 0} ; [ DW_TAG_subroutine_type ]
!952 = metadata !{null, metadata !903, metadata !953}
!953 = metadata !{i32 786468, null, metadata !"float", null, i32 0, i64 32, i64 32, i64 0, i32 0, i32 4} ; [ DW_TAG_base_type ]
!954 = metadata !{i32 786478, i32 0, metadata !885, metadata !"ap_int_base", metadata !"ap_int_base", metadata !"", metadata !866, i32 1529, metadata !955, i1 false, i1 false, i32 0, i32 0, null, i32 384, i1 false, null, null, i32 0, metadata !87, i32 1529} ; [ DW_TAG_subprogram ]
!955 = metadata !{i32 786453, i32 0, metadata !"", i32 0, i32 0, i64 0, i64 0, i64 0, i32 0, null, metadata !956, i32 0, i32 0} ; [ DW_TAG_subroutine_type ]
!956 = metadata !{null, metadata !903, metadata !957}
!957 = metadata !{i32 786468, null, metadata !"double", null, i32 0, i64 64, i64 64, i64 0, i32 0, i32 4} ; [ DW_TAG_base_type ]
!958 = metadata !{i32 786478, i32 0, metadata !885, metadata !"ap_int_base", metadata !"ap_int_base", metadata !"", metadata !866, i32 1556, metadata !959, i1 false, i1 false, i32 0, i32 0, null, i32 256, i1 false, null, null, i32 0, metadata !87, i32 1556} ; [ DW_TAG_subprogram ]
!959 = metadata !{i32 786453, i32 0, metadata !"", i32 0, i32 0, i64 0, i64 0, i64 0, i32 0, null, metadata !960, i32 0, i32 0} ; [ DW_TAG_subroutine_type ]
!960 = metadata !{null, metadata !903, metadata !151}
!961 = metadata !{i32 786478, i32 0, metadata !885, metadata !"ap_int_base", metadata !"ap_int_base", metadata !"", metadata !866, i32 1563, metadata !962, i1 false, i1 false, i32 0, i32 0, null, i32 256, i1 false, null, null, i32 0, metadata !87, i32 1563} ; [ DW_TAG_subprogram ]
!962 = metadata !{i32 786453, i32 0, metadata !"", i32 0, i32 0, i64 0, i64 0, i64 0, i32 0, null, metadata !963, i32 0, i32 0} ; [ DW_TAG_subroutine_type ]
!963 = metadata !{null, metadata !903, metadata !151, metadata !910}
!964 = metadata !{i32 786478, i32 0, metadata !885, metadata !"read", metadata !"read", metadata !"_ZNV11ap_int_baseILi32ELb0ELb1EE4readEv", metadata !866, i32 1584, metadata !965, i1 false, i1 false, i32 0, i32 0, null, i32 256, i1 false, null, null, i32 0, metadata !87, i32 1584} ; [ DW_TAG_subprogram ]
!965 = metadata !{i32 786453, i32 0, metadata !"", i32 0, i32 0, i64 0, i64 0, i64 0, i32 0, null, metadata !966, i32 0, i32 0} ; [ DW_TAG_subroutine_type ]
!966 = metadata !{metadata !885, metadata !967}
!967 = metadata !{i32 786447, i32 0, metadata !"", i32 0, i32 0, i64 64, i64 64, i64 0, i32 64, metadata !968} ; [ DW_TAG_pointer_type ]
!968 = metadata !{i32 786485, null, metadata !"", null, i32 0, i64 0, i64 0, i64 0, i32 0, metadata !885} ; [ DW_TAG_volatile_type ]
!969 = metadata !{i32 786478, i32 0, metadata !885, metadata !"write", metadata !"write", metadata !"_ZNV11ap_int_baseILi32ELb0ELb1EE5writeERKS0_", metadata !866, i32 1590, metadata !970, i1 false, i1 false, i32 0, i32 0, null, i32 256, i1 false, null, null, i32 0, metadata !87, i32 1590} ; [ DW_TAG_subprogram ]
!970 = metadata !{i32 786453, i32 0, metadata !"", i32 0, i32 0, i64 0, i64 0, i64 0, i32 0, null, metadata !971, i32 0, i32 0} ; [ DW_TAG_subroutine_type ]
!971 = metadata !{null, metadata !967, metadata !972}
!972 = metadata !{i32 786448, null, null, null, i32 0, i64 0, i64 0, i64 0, i32 0, metadata !973} ; [ DW_TAG_reference_type ]
!973 = metadata !{i32 786470, null, metadata !"", null, i32 0, i64 0, i64 0, i64 0, i32 0, metadata !885} ; [ DW_TAG_const_type ]
!974 = metadata !{i32 786478, i32 0, metadata !885, metadata !"operator=", metadata !"operator=", metadata !"_ZNV11ap_int_baseILi32ELb0ELb1EEaSERVKS0_", metadata !866, i32 1602, metadata !975, i1 false, i1 false, i32 0, i32 0, null, i32 256, i1 false, null, null, i32 0, metadata !87, i32 1602} ; [ DW_TAG_subprogram ]
!975 = metadata !{i32 786453, i32 0, metadata !"", i32 0, i32 0, i64 0, i64 0, i64 0, i32 0, null, metadata !976, i32 0, i32 0} ; [ DW_TAG_subroutine_type ]
!976 = metadata !{null, metadata !967, metadata !977}
!977 = metadata !{i32 786448, null, null, null, i32 0, i64 0, i64 0, i64 0, i32 0, metadata !978} ; [ DW_TAG_reference_type ]
!978 = metadata !{i32 786470, null, metadata !"", null, i32 0, i64 0, i64 0, i64 0, i32 0, metadata !968} ; [ DW_TAG_const_type ]
!979 = metadata !{i32 786478, i32 0, metadata !885, metadata !"operator=", metadata !"operator=", metadata !"_ZNV11ap_int_baseILi32ELb0ELb1EEaSERKS0_", metadata !866, i32 1611, metadata !970, i1 false, i1 false, i32 0, i32 0, null, i32 256, i1 false, null, null, i32 0, metadata !87, i32 1611} ; [ DW_TAG_subprogram ]
!980 = metadata !{i32 786478, i32 0, metadata !885, metadata !"operator=", metadata !"operator=", metadata !"_ZN11ap_int_baseILi32ELb0ELb1EEaSERVKS0_", metadata !866, i32 1634, metadata !981, i1 false, i1 false, i32 0, i32 0, null, i32 256, i1 false, null, null, i32 0, metadata !87, i32 1634} ; [ DW_TAG_subprogram ]
!981 = metadata !{i32 786453, i32 0, metadata !"", i32 0, i32 0, i64 0, i64 0, i64 0, i32 0, null, metadata !982, i32 0, i32 0} ; [ DW_TAG_subroutine_type ]
!982 = metadata !{metadata !983, metadata !903, metadata !977}
!983 = metadata !{i32 786448, null, null, null, i32 0, i64 0, i64 0, i64 0, i32 0, metadata !885} ; [ DW_TAG_reference_type ]
!984 = metadata !{i32 786478, i32 0, metadata !885, metadata !"operator=", metadata !"operator=", metadata !"_ZN11ap_int_baseILi32ELb0ELb1EEaSERKS0_", metadata !866, i32 1639, metadata !985, i1 false, i1 false, i32 0, i32 0, null, i32 256, i1 false, null, null, i32 0, metadata !87, i32 1639} ; [ DW_TAG_subprogram ]
!985 = metadata !{i32 786453, i32 0, metadata !"", i32 0, i32 0, i64 0, i64 0, i64 0, i32 0, null, metadata !986, i32 0, i32 0} ; [ DW_TAG_subroutine_type ]
!986 = metadata !{metadata !983, metadata !903, metadata !972}
!987 = metadata !{i32 786478, i32 0, metadata !885, metadata !"operator=", metadata !"operator=", metadata !"_ZN11ap_int_baseILi32ELb0ELb1EEaSEPKc", metadata !866, i32 1643, metadata !988, i1 false, i1 false, i32 0, i32 0, null, i32 256, i1 false, null, null, i32 0, metadata !87, i32 1643} ; [ DW_TAG_subprogram ]
!988 = metadata !{i32 786453, i32 0, metadata !"", i32 0, i32 0, i64 0, i64 0, i64 0, i32 0, null, metadata !989, i32 0, i32 0} ; [ DW_TAG_subroutine_type ]
!989 = metadata !{metadata !983, metadata !903, metadata !151}
!990 = metadata !{i32 786478, i32 0, metadata !885, metadata !"set", metadata !"set", metadata !"_ZN11ap_int_baseILi32ELb0ELb1EE3setEPKca", metadata !866, i32 1651, metadata !991, i1 false, i1 false, i32 0, i32 0, null, i32 256, i1 false, null, null, i32 0, metadata !87, i32 1651} ; [ DW_TAG_subprogram ]
!991 = metadata !{i32 786453, i32 0, metadata !"", i32 0, i32 0, i64 0, i64 0, i64 0, i32 0, null, metadata !992, i32 0, i32 0} ; [ DW_TAG_subroutine_type ]
!992 = metadata !{metadata !983, metadata !903, metadata !151, metadata !910}
!993 = metadata !{i32 786478, i32 0, metadata !885, metadata !"operator=", metadata !"operator=", metadata !"_ZN11ap_int_baseILi32ELb0ELb1EEaSEa", metadata !866, i32 1665, metadata !994, i1 false, i1 false, i32 0, i32 0, null, i32 256, i1 false, null, null, i32 0, metadata !87, i32 1665} ; [ DW_TAG_subprogram ]
!994 = metadata !{i32 786453, i32 0, metadata !"", i32 0, i32 0, i64 0, i64 0, i64 0, i32 0, null, metadata !995, i32 0, i32 0} ; [ DW_TAG_subroutine_type ]
!995 = metadata !{metadata !983, metadata !903, metadata !910}
!996 = metadata !{i32 786478, i32 0, metadata !885, metadata !"operator=", metadata !"operator=", metadata !"_ZN11ap_int_baseILi32ELb0ELb1EEaSEh", metadata !866, i32 1666, metadata !997, i1 false, i1 false, i32 0, i32 0, null, i32 256, i1 false, null, null, i32 0, metadata !87, i32 1666} ; [ DW_TAG_subprogram ]
!997 = metadata !{i32 786453, i32 0, metadata !"", i32 0, i32 0, i64 0, i64 0, i64 0, i32 0, null, metadata !998, i32 0, i32 0} ; [ DW_TAG_subroutine_type ]
!998 = metadata !{metadata !983, metadata !903, metadata !914}
!999 = metadata !{i32 786478, i32 0, metadata !885, metadata !"operator=", metadata !"operator=", metadata !"_ZN11ap_int_baseILi32ELb0ELb1EEaSEs", metadata !866, i32 1667, metadata !1000, i1 false, i1 false, i32 0, i32 0, null, i32 256, i1 false, null, null, i32 0, metadata !87, i32 1667} ; [ DW_TAG_subprogram ]
!1000 = metadata !{i32 786453, i32 0, metadata !"", i32 0, i32 0, i64 0, i64 0, i64 0, i32 0, null, metadata !1001, i32 0, i32 0} ; [ DW_TAG_subroutine_type ]
!1001 = metadata !{metadata !983, metadata !903, metadata !918}
!1002 = metadata !{i32 786478, i32 0, metadata !885, metadata !"operator=", metadata !"operator=", metadata !"_ZN11ap_int_baseILi32ELb0ELb1EEaSEt", metadata !866, i32 1668, metadata !1003, i1 false, i1 false, i32 0, i32 0, null, i32 256, i1 false, null, null, i32 0, metadata !87, i32 1668} ; [ DW_TAG_subprogram ]
!1003 = metadata !{i32 786453, i32 0, metadata !"", i32 0, i32 0, i64 0, i64 0, i64 0, i32 0, null, metadata !1004, i32 0, i32 0} ; [ DW_TAG_subroutine_type ]
!1004 = metadata !{metadata !983, metadata !903, metadata !922}
!1005 = metadata !{i32 786478, i32 0, metadata !885, metadata !"operator=", metadata !"operator=", metadata !"_ZN11ap_int_baseILi32ELb0ELb1EEaSEi", metadata !866, i32 1669, metadata !1006, i1 false, i1 false, i32 0, i32 0, null, i32 256, i1 false, null, null, i32 0, metadata !87, i32 1669} ; [ DW_TAG_subprogram ]
!1006 = metadata !{i32 786453, i32 0, metadata !"", i32 0, i32 0, i64 0, i64 0, i64 0, i32 0, null, metadata !1007, i32 0, i32 0} ; [ DW_TAG_subroutine_type ]
!1007 = metadata !{metadata !983, metadata !903, metadata !56}
!1008 = metadata !{i32 786478, i32 0, metadata !885, metadata !"operator=", metadata !"operator=", metadata !"_ZN11ap_int_baseILi32ELb0ELb1EEaSEj", metadata !866, i32 1670, metadata !1009, i1 false, i1 false, i32 0, i32 0, null, i32 256, i1 false, null, null, i32 0, metadata !87, i32 1670} ; [ DW_TAG_subprogram ]
!1009 = metadata !{i32 786453, i32 0, metadata !"", i32 0, i32 0, i64 0, i64 0, i64 0, i32 0, null, metadata !1010, i32 0, i32 0} ; [ DW_TAG_subroutine_type ]
!1010 = metadata !{metadata !983, metadata !903, metadata !929}
!1011 = metadata !{i32 786478, i32 0, metadata !885, metadata !"operator=", metadata !"operator=", metadata !"_ZN11ap_int_baseILi32ELb0ELb1EEaSEx", metadata !866, i32 1671, metadata !1012, i1 false, i1 false, i32 0, i32 0, null, i32 256, i1 false, null, null, i32 0, metadata !87, i32 1671} ; [ DW_TAG_subprogram ]
!1012 = metadata !{i32 786453, i32 0, metadata !"", i32 0, i32 0, i64 0, i64 0, i64 0, i32 0, null, metadata !1013, i32 0, i32 0} ; [ DW_TAG_subroutine_type ]
!1013 = metadata !{metadata !983, metadata !903, metadata !940}
!1014 = metadata !{i32 786478, i32 0, metadata !885, metadata !"operator=", metadata !"operator=", metadata !"_ZN11ap_int_baseILi32ELb0ELb1EEaSEy", metadata !866, i32 1672, metadata !1015, i1 false, i1 false, i32 0, i32 0, null, i32 256, i1 false, null, null, i32 0, metadata !87, i32 1672} ; [ DW_TAG_subprogram ]
!1015 = metadata !{i32 786453, i32 0, metadata !"", i32 0, i32 0, i64 0, i64 0, i64 0, i32 0, null, metadata !1016, i32 0, i32 0} ; [ DW_TAG_subroutine_type ]
!1016 = metadata !{metadata !983, metadata !903, metadata !944}
!1017 = metadata !{i32 786478, i32 0, metadata !885, metadata !"operator unsigned int", metadata !"operator unsigned int", metadata !"_ZNK11ap_int_baseILi32ELb0ELb1EEcvjEv", metadata !866, i32 1710, metadata !1018, i1 false, i1 false, i32 0, i32 0, null, i32 256, i1 false, null, null, i32 0, metadata !87, i32 1710} ; [ DW_TAG_subprogram ]
!1018 = metadata !{i32 786453, i32 0, metadata !"", i32 0, i32 0, i64 0, i64 0, i64 0, i32 0, null, metadata !1019, i32 0, i32 0} ; [ DW_TAG_subroutine_type ]
!1019 = metadata !{metadata !1020, metadata !1025}
!1020 = metadata !{i32 786454, metadata !885, metadata !"RetType", metadata !866, i32 1458, i64 0, i64 0, i64 0, i32 0, metadata !1021} ; [ DW_TAG_typedef ]
!1021 = metadata !{i32 786454, metadata !1022, metadata !"Type", metadata !866, i32 1444, i64 0, i64 0, i64 0, i32 0, metadata !929} ; [ DW_TAG_typedef ]
!1022 = metadata !{i32 786434, null, metadata !"retval<4, false>", metadata !866, i32 1443, i64 8, i64 8, i32 0, i32 0, null, metadata !873, i32 0, null, metadata !1023} ; [ DW_TAG_class_type ]
!1023 = metadata !{metadata !1024, metadata !899}
!1024 = metadata !{i32 786480, null, metadata !"_AP_N", metadata !56, i64 4, null, i32 0, i32 0} ; [ DW_TAG_template_value_parameter ]
!1025 = metadata !{i32 786447, i32 0, metadata !"", i32 0, i32 0, i64 64, i64 64, i64 0, i32 64, metadata !973} ; [ DW_TAG_pointer_type ]
!1026 = metadata !{i32 786478, i32 0, metadata !885, metadata !"to_bool", metadata !"to_bool", metadata !"_ZNK11ap_int_baseILi32ELb0ELb1EE7to_boolEv", metadata !866, i32 1716, metadata !1027, i1 false, i1 false, i32 0, i32 0, null, i32 256, i1 false, null, null, i32 0, metadata !87, i32 1716} ; [ DW_TAG_subprogram ]
!1027 = metadata !{i32 786453, i32 0, metadata !"", i32 0, i32 0, i64 0, i64 0, i64 0, i32 0, null, metadata !1028, i32 0, i32 0} ; [ DW_TAG_subroutine_type ]
!1028 = metadata !{metadata !213, metadata !1025}
!1029 = metadata !{i32 786478, i32 0, metadata !885, metadata !"to_uchar", metadata !"to_uchar", metadata !"_ZNK11ap_int_baseILi32ELb0ELb1EE8to_ucharEv", metadata !866, i32 1717, metadata !1030, i1 false, i1 false, i32 0, i32 0, null, i32 256, i1 false, null, null, i32 0, metadata !87, i32 1717} ; [ DW_TAG_subprogram ]
!1030 = metadata !{i32 786453, i32 0, metadata !"", i32 0, i32 0, i64 0, i64 0, i64 0, i32 0, null, metadata !1031, i32 0, i32 0} ; [ DW_TAG_subroutine_type ]
!1031 = metadata !{metadata !914, metadata !1025}
!1032 = metadata !{i32 786478, i32 0, metadata !885, metadata !"to_char", metadata !"to_char", metadata !"_ZNK11ap_int_baseILi32ELb0ELb1EE7to_charEv", metadata !866, i32 1718, metadata !1033, i1 false, i1 false, i32 0, i32 0, null, i32 256, i1 false, null, null, i32 0, metadata !87, i32 1718} ; [ DW_TAG_subprogram ]
!1033 = metadata !{i32 786453, i32 0, metadata !"", i32 0, i32 0, i64 0, i64 0, i64 0, i32 0, null, metadata !1034, i32 0, i32 0} ; [ DW_TAG_subroutine_type ]
!1034 = metadata !{metadata !910, metadata !1025}
!1035 = metadata !{i32 786478, i32 0, metadata !885, metadata !"to_ushort", metadata !"to_ushort", metadata !"_ZNK11ap_int_baseILi32ELb0ELb1EE9to_ushortEv", metadata !866, i32 1719, metadata !1036, i1 false, i1 false, i32 0, i32 0, null, i32 256, i1 false, null, null, i32 0, metadata !87, i32 1719} ; [ DW_TAG_subprogram ]
!1036 = metadata !{i32 786453, i32 0, metadata !"", i32 0, i32 0, i64 0, i64 0, i64 0, i32 0, null, metadata !1037, i32 0, i32 0} ; [ DW_TAG_subroutine_type ]
!1037 = metadata !{metadata !922, metadata !1025}
!1038 = metadata !{i32 786478, i32 0, metadata !885, metadata !"to_short", metadata !"to_short", metadata !"_ZNK11ap_int_baseILi32ELb0ELb1EE8to_shortEv", metadata !866, i32 1720, metadata !1039, i1 false, i1 false, i32 0, i32 0, null, i32 256, i1 false, null, null, i32 0, metadata !87, i32 1720} ; [ DW_TAG_subprogram ]
!1039 = metadata !{i32 786453, i32 0, metadata !"", i32 0, i32 0, i64 0, i64 0, i64 0, i32 0, null, metadata !1040, i32 0, i32 0} ; [ DW_TAG_subroutine_type ]
!1040 = metadata !{metadata !918, metadata !1025}
!1041 = metadata !{i32 786478, i32 0, metadata !885, metadata !"to_int", metadata !"to_int", metadata !"_ZNK11ap_int_baseILi32ELb0ELb1EE6to_intEv", metadata !866, i32 1721, metadata !1042, i1 false, i1 false, i32 0, i32 0, null, i32 256, i1 false, null, null, i32 0, metadata !87, i32 1721} ; [ DW_TAG_subprogram ]
!1042 = metadata !{i32 786453, i32 0, metadata !"", i32 0, i32 0, i64 0, i64 0, i64 0, i32 0, null, metadata !1043, i32 0, i32 0} ; [ DW_TAG_subroutine_type ]
!1043 = metadata !{metadata !56, metadata !1025}
!1044 = metadata !{i32 786478, i32 0, metadata !885, metadata !"to_uint", metadata !"to_uint", metadata !"_ZNK11ap_int_baseILi32ELb0ELb1EE7to_uintEv", metadata !866, i32 1722, metadata !1045, i1 false, i1 false, i32 0, i32 0, null, i32 256, i1 false, null, null, i32 0, metadata !87, i32 1722} ; [ DW_TAG_subprogram ]
!1045 = metadata !{i32 786453, i32 0, metadata !"", i32 0, i32 0, i64 0, i64 0, i64 0, i32 0, null, metadata !1046, i32 0, i32 0} ; [ DW_TAG_subroutine_type ]
!1046 = metadata !{metadata !929, metadata !1025}
!1047 = metadata !{i32 786478, i32 0, metadata !885, metadata !"to_long", metadata !"to_long", metadata !"_ZNK11ap_int_baseILi32ELb0ELb1EE7to_longEv", metadata !866, i32 1723, metadata !1048, i1 false, i1 false, i32 0, i32 0, null, i32 256, i1 false, null, null, i32 0, metadata !87, i32 1723} ; [ DW_TAG_subprogram ]
!1048 = metadata !{i32 786453, i32 0, metadata !"", i32 0, i32 0, i64 0, i64 0, i64 0, i32 0, null, metadata !1049, i32 0, i32 0} ; [ DW_TAG_subroutine_type ]
!1049 = metadata !{metadata !101, metadata !1025}
!1050 = metadata !{i32 786478, i32 0, metadata !885, metadata !"to_ulong", metadata !"to_ulong", metadata !"_ZNK11ap_int_baseILi32ELb0ELb1EE8to_ulongEv", metadata !866, i32 1724, metadata !1051, i1 false, i1 false, i32 0, i32 0, null, i32 256, i1 false, null, null, i32 0, metadata !87, i32 1724} ; [ DW_TAG_subprogram ]
!1051 = metadata !{i32 786453, i32 0, metadata !"", i32 0, i32 0, i64 0, i64 0, i64 0, i32 0, null, metadata !1052, i32 0, i32 0} ; [ DW_TAG_subroutine_type ]
!1052 = metadata !{metadata !936, metadata !1025}
!1053 = metadata !{i32 786478, i32 0, metadata !885, metadata !"to_int64", metadata !"to_int64", metadata !"_ZNK11ap_int_baseILi32ELb0ELb1EE8to_int64Ev", metadata !866, i32 1725, metadata !1054, i1 false, i1 false, i32 0, i32 0, null, i32 256, i1 false, null, null, i32 0, metadata !87, i32 1725} ; [ DW_TAG_subprogram ]
!1054 = metadata !{i32 786453, i32 0, metadata !"", i32 0, i32 0, i64 0, i64 0, i64 0, i32 0, null, metadata !1055, i32 0, i32 0} ; [ DW_TAG_subroutine_type ]
!1055 = metadata !{metadata !940, metadata !1025}
!1056 = metadata !{i32 786478, i32 0, metadata !885, metadata !"to_uint64", metadata !"to_uint64", metadata !"_ZNK11ap_int_baseILi32ELb0ELb1EE9to_uint64Ev", metadata !866, i32 1726, metadata !1057, i1 false, i1 false, i32 0, i32 0, null, i32 256, i1 false, null, null, i32 0, metadata !87, i32 1726} ; [ DW_TAG_subprogram ]
!1057 = metadata !{i32 786453, i32 0, metadata !"", i32 0, i32 0, i64 0, i64 0, i64 0, i32 0, null, metadata !1058, i32 0, i32 0} ; [ DW_TAG_subroutine_type ]
!1058 = metadata !{metadata !944, metadata !1025}
!1059 = metadata !{i32 786478, i32 0, metadata !885, metadata !"to_double", metadata !"to_double", metadata !"_ZNK11ap_int_baseILi32ELb0ELb1EE9to_doubleEv", metadata !866, i32 1727, metadata !1060, i1 false, i1 false, i32 0, i32 0, null, i32 256, i1 false, null, null, i32 0, metadata !87, i32 1727} ; [ DW_TAG_subprogram ]
!1060 = metadata !{i32 786453, i32 0, metadata !"", i32 0, i32 0, i64 0, i64 0, i64 0, i32 0, null, metadata !1061, i32 0, i32 0} ; [ DW_TAG_subroutine_type ]
!1061 = metadata !{metadata !957, metadata !1025}
!1062 = metadata !{i32 786478, i32 0, metadata !885, metadata !"length", metadata !"length", metadata !"_ZNK11ap_int_baseILi32ELb0ELb1EE6lengthEv", metadata !866, i32 1741, metadata !1042, i1 false, i1 false, i32 0, i32 0, null, i32 256, i1 false, null, null, i32 0, metadata !87, i32 1741} ; [ DW_TAG_subprogram ]
!1063 = metadata !{i32 786478, i32 0, metadata !885, metadata !"length", metadata !"length", metadata !"_ZNVK11ap_int_baseILi32ELb0ELb1EE6lengthEv", metadata !866, i32 1742, metadata !1064, i1 false, i1 false, i32 0, i32 0, null, i32 256, i1 false, null, null, i32 0, metadata !87, i32 1742} ; [ DW_TAG_subprogram ]
!1064 = metadata !{i32 786453, i32 0, metadata !"", i32 0, i32 0, i64 0, i64 0, i64 0, i32 0, null, metadata !1065, i32 0, i32 0} ; [ DW_TAG_subroutine_type ]
!1065 = metadata !{metadata !56, metadata !1066}
!1066 = metadata !{i32 786447, i32 0, metadata !"", i32 0, i32 0, i64 64, i64 64, i64 0, i32 64, metadata !978} ; [ DW_TAG_pointer_type ]
!1067 = metadata !{i32 786478, i32 0, metadata !885, metadata !"reverse", metadata !"reverse", metadata !"_ZN11ap_int_baseILi32ELb0ELb1EE7reverseEv", metadata !866, i32 1747, metadata !1068, i1 false, i1 false, i32 0, i32 0, null, i32 256, i1 false, null, null, i32 0, metadata !87, i32 1747} ; [ DW_TAG_subprogram ]
!1068 = metadata !{i32 786453, i32 0, metadata !"", i32 0, i32 0, i64 0, i64 0, i64 0, i32 0, null, metadata !1069, i32 0, i32 0} ; [ DW_TAG_subroutine_type ]
!1069 = metadata !{metadata !983, metadata !903}
!1070 = metadata !{i32 786478, i32 0, metadata !885, metadata !"iszero", metadata !"iszero", metadata !"_ZNK11ap_int_baseILi32ELb0ELb1EE6iszeroEv", metadata !866, i32 1753, metadata !1027, i1 false, i1 false, i32 0, i32 0, null, i32 256, i1 false, null, null, i32 0, metadata !87, i32 1753} ; [ DW_TAG_subprogram ]
!1071 = metadata !{i32 786478, i32 0, metadata !885, metadata !"is_zero", metadata !"is_zero", metadata !"_ZNK11ap_int_baseILi32ELb0ELb1EE7is_zeroEv", metadata !866, i32 1758, metadata !1027, i1 false, i1 false, i32 0, i32 0, null, i32 256, i1 false, null, null, i32 0, metadata !87, i32 1758} ; [ DW_TAG_subprogram ]
!1072 = metadata !{i32 786478, i32 0, metadata !885, metadata !"sign", metadata !"sign", metadata !"_ZNK11ap_int_baseILi32ELb0ELb1EE4signEv", metadata !866, i32 1763, metadata !1027, i1 false, i1 false, i32 0, i32 0, null, i32 256, i1 false, null, null, i32 0, metadata !87, i32 1763} ; [ DW_TAG_subprogram ]
!1073 = metadata !{i32 786478, i32 0, metadata !885, metadata !"clear", metadata !"clear", metadata !"_ZN11ap_int_baseILi32ELb0ELb1EE5clearEi", metadata !866, i32 1771, metadata !924, i1 false, i1 false, i32 0, i32 0, null, i32 256, i1 false, null, null, i32 0, metadata !87, i32 1771} ; [ DW_TAG_subprogram ]
!1074 = metadata !{i32 786478, i32 0, metadata !885, metadata !"invert", metadata !"invert", metadata !"_ZN11ap_int_baseILi32ELb0ELb1EE6invertEi", metadata !866, i32 1777, metadata !924, i1 false, i1 false, i32 0, i32 0, null, i32 256, i1 false, null, null, i32 0, metadata !87, i32 1777} ; [ DW_TAG_subprogram ]
!1075 = metadata !{i32 786478, i32 0, metadata !885, metadata !"test", metadata !"test", metadata !"_ZNK11ap_int_baseILi32ELb0ELb1EE4testEi", metadata !866, i32 1785, metadata !1076, i1 false, i1 false, i32 0, i32 0, null, i32 256, i1 false, null, null, i32 0, metadata !87, i32 1785} ; [ DW_TAG_subprogram ]
!1076 = metadata !{i32 786453, i32 0, metadata !"", i32 0, i32 0, i64 0, i64 0, i64 0, i32 0, null, metadata !1077, i32 0, i32 0} ; [ DW_TAG_subroutine_type ]
!1077 = metadata !{metadata !213, metadata !1025, metadata !56}
!1078 = metadata !{i32 786478, i32 0, metadata !885, metadata !"set", metadata !"set", metadata !"_ZN11ap_int_baseILi32ELb0ELb1EE3setEi", metadata !866, i32 1791, metadata !924, i1 false, i1 false, i32 0, i32 0, null, i32 256, i1 false, null, null, i32 0, metadata !87, i32 1791} ; [ DW_TAG_subprogram ]
!1079 = metadata !{i32 786478, i32 0, metadata !885, metadata !"set", metadata !"set", metadata !"_ZN11ap_int_baseILi32ELb0ELb1EE3setEib", metadata !866, i32 1797, metadata !1080, i1 false, i1 false, i32 0, i32 0, null, i32 256, i1 false, null, null, i32 0, metadata !87, i32 1797} ; [ DW_TAG_subprogram ]
!1080 = metadata !{i32 786453, i32 0, metadata !"", i32 0, i32 0, i64 0, i64 0, i64 0, i32 0, null, metadata !1081, i32 0, i32 0} ; [ DW_TAG_subroutine_type ]
!1081 = metadata !{null, metadata !903, metadata !56, metadata !213}
!1082 = metadata !{i32 786478, i32 0, metadata !885, metadata !"lrotate", metadata !"lrotate", metadata !"_ZN11ap_int_baseILi32ELb0ELb1EE7lrotateEi", metadata !866, i32 1804, metadata !924, i1 false, i1 false, i32 0, i32 0, null, i32 256, i1 false, null, null, i32 0, metadata !87, i32 1804} ; [ DW_TAG_subprogram ]
!1083 = metadata !{i32 786478, i32 0, metadata !885, metadata !"rrotate", metadata !"rrotate", metadata !"_ZN11ap_int_baseILi32ELb0ELb1EE7rrotateEi", metadata !866, i32 1813, metadata !924, i1 false, i1 false, i32 0, i32 0, null, i32 256, i1 false, null, null, i32 0, metadata !87, i32 1813} ; [ DW_TAG_subprogram ]
!1084 = metadata !{i32 786478, i32 0, metadata !885, metadata !"set_bit", metadata !"set_bit", metadata !"_ZN11ap_int_baseILi32ELb0ELb1EE7set_bitEib", metadata !866, i32 1821, metadata !1080, i1 false, i1 false, i32 0, i32 0, null, i32 256, i1 false, null, null, i32 0, metadata !87, i32 1821} ; [ DW_TAG_subprogram ]
!1085 = metadata !{i32 786478, i32 0, metadata !885, metadata !"get_bit", metadata !"get_bit", metadata !"_ZNK11ap_int_baseILi32ELb0ELb1EE7get_bitEi", metadata !866, i32 1826, metadata !1076, i1 false, i1 false, i32 0, i32 0, null, i32 256, i1 false, null, null, i32 0, metadata !87, i32 1826} ; [ DW_TAG_subprogram ]
!1086 = metadata !{i32 786478, i32 0, metadata !885, metadata !"b_not", metadata !"b_not", metadata !"_ZN11ap_int_baseILi32ELb0ELb1EE5b_notEv", metadata !866, i32 1831, metadata !901, i1 false, i1 false, i32 0, i32 0, null, i32 256, i1 false, null, null, i32 0, metadata !87, i32 1831} ; [ DW_TAG_subprogram ]
!1087 = metadata !{i32 786478, i32 0, metadata !885, metadata !"countLeadingZeros", metadata !"countLeadingZeros", metadata !"_ZN11ap_int_baseILi32ELb0ELb1EE17countLeadingZerosEv", metadata !866, i32 1838, metadata !1088, i1 false, i1 false, i32 0, i32 0, null, i32 256, i1 false, null, null, i32 0, metadata !87, i32 1838} ; [ DW_TAG_subprogram ]
!1088 = metadata !{i32 786453, i32 0, metadata !"", i32 0, i32 0, i64 0, i64 0, i64 0, i32 0, null, metadata !1089, i32 0, i32 0} ; [ DW_TAG_subroutine_type ]
!1089 = metadata !{metadata !56, metadata !903}
!1090 = metadata !{i32 786478, i32 0, metadata !885, metadata !"operator++", metadata !"operator++", metadata !"_ZN11ap_int_baseILi32ELb0ELb1EEppEv", metadata !866, i32 1895, metadata !1068, i1 false, i1 false, i32 0, i32 0, null, i32 256, i1 false, null, null, i32 0, metadata !87, i32 1895} ; [ DW_TAG_subprogram ]
!1091 = metadata !{i32 786478, i32 0, metadata !885, metadata !"operator--", metadata !"operator--", metadata !"_ZN11ap_int_baseILi32ELb0ELb1EEmmEv", metadata !866, i32 1899, metadata !1068, i1 false, i1 false, i32 0, i32 0, null, i32 256, i1 false, null, null, i32 0, metadata !87, i32 1899} ; [ DW_TAG_subprogram ]
!1092 = metadata !{i32 786478, i32 0, metadata !885, metadata !"operator++", metadata !"operator++", metadata !"_ZN11ap_int_baseILi32ELb0ELb1EEppEi", metadata !866, i32 1907, metadata !1093, i1 false, i1 false, i32 0, i32 0, null, i32 256, i1 false, null, null, i32 0, metadata !87, i32 1907} ; [ DW_TAG_subprogram ]
!1093 = metadata !{i32 786453, i32 0, metadata !"", i32 0, i32 0, i64 0, i64 0, i64 0, i32 0, null, metadata !1094, i32 0, i32 0} ; [ DW_TAG_subroutine_type ]
!1094 = metadata !{metadata !973, metadata !903, metadata !56}
!1095 = metadata !{i32 786478, i32 0, metadata !885, metadata !"operator--", metadata !"operator--", metadata !"_ZN11ap_int_baseILi32ELb0ELb1EEmmEi", metadata !866, i32 1912, metadata !1093, i1 false, i1 false, i32 0, i32 0, null, i32 256, i1 false, null, null, i32 0, metadata !87, i32 1912} ; [ DW_TAG_subprogram ]
!1096 = metadata !{i32 786478, i32 0, metadata !885, metadata !"operator+", metadata !"operator+", metadata !"_ZNK11ap_int_baseILi32ELb0ELb1EEpsEv", metadata !866, i32 1921, metadata !1097, i1 false, i1 false, i32 0, i32 0, null, i32 256, i1 false, null, null, i32 0, metadata !87, i32 1921} ; [ DW_TAG_subprogram ]
!1097 = metadata !{i32 786453, i32 0, metadata !"", i32 0, i32 0, i64 0, i64 0, i64 0, i32 0, null, metadata !1098, i32 0, i32 0} ; [ DW_TAG_subroutine_type ]
!1098 = metadata !{metadata !885, metadata !1025}
!1099 = metadata !{i32 786478, i32 0, metadata !885, metadata !"operator!", metadata !"operator!", metadata !"_ZNK11ap_int_baseILi32ELb0ELb1EEntEv", metadata !866, i32 1927, metadata !1027, i1 false, i1 false, i32 0, i32 0, null, i32 256, i1 false, null, null, i32 0, metadata !87, i32 1927} ; [ DW_TAG_subprogram ]
!1100 = metadata !{i32 786478, i32 0, metadata !885, metadata !"operator-", metadata !"operator-", metadata !"_ZNK11ap_int_baseILi32ELb0ELb1EEngEv", metadata !866, i32 1932, metadata !1101, i1 false, i1 false, i32 0, i32 0, null, i32 256, i1 false, null, null, i32 0, metadata !87, i32 1932} ; [ DW_TAG_subprogram ]
!1101 = metadata !{i32 786453, i32 0, metadata !"", i32 0, i32 0, i64 0, i64 0, i64 0, i32 0, null, metadata !1102, i32 0, i32 0} ; [ DW_TAG_subroutine_type ]
!1102 = metadata !{metadata !1103, metadata !1025}
!1103 = metadata !{i32 786434, null, metadata !"ap_int_base<33, true, true>", metadata !866, i32 1453, i64 64, i64 32, i32 0, i32 0, null, metadata !1104, i32 0, null, metadata !1392} ; [ DW_TAG_class_type ]
!1104 = metadata !{metadata !1105, metadata !1117, metadata !1121, metadata !1129, metadata !1135, metadata !1138, metadata !1141, metadata !1144, metadata !1147, metadata !1150, metadata !1153, metadata !1156, metadata !1159, metadata !1162, metadata !1165, metadata !1168, metadata !1171, metadata !1174, metadata !1177, metadata !1180, metadata !1183, metadata !1187, metadata !1190, metadata !1193, metadata !1194, metadata !1198, metadata !1201, metadata !1204, metadata !1207, metadata !1210, metadata !1213, metadata !1216, metadata !1219, metadata !1222, metadata !1225, metadata !1228, metadata !1231, metadata !1240, metadata !1243, metadata !1246, metadata !1249, metadata !1252, metadata !1255, metadata !1258, metadata !1261, metadata !1264, metadata !1267, metadata !1270, metadata !1273, metadata !1276, metadata !1277, metadata !1281, metadata !1284, metadata !1285, metadata !1286, metadata !1287, metadata !1288, metadata !1289, metadata !1292, metadata !1293, metadata !1296, metadata !1297, metadata !1298, metadata !1299, metadata !1300, metadata !1301, metadata !1304, metadata !1305, metadata !1306, metadata !1309, metadata !1310, metadata !1313, metadata !1314, metadata !1318, metadata !1322, metadata !1323, metadata !1326, metadata !1327, metadata !1366, metadata !1367, metadata !1368, metadata !1369, metadata !1372, metadata !1373, metadata !1374, metadata !1375, metadata !1376, metadata !1377, metadata !1378, metadata !1379, metadata !1380, metadata !1381, metadata !1382, metadata !1383, metadata !1386, metadata !1389}
!1105 = metadata !{i32 786460, metadata !1103, null, metadata !866, i32 0, i64 0, i64 0, i64 0, i32 0, metadata !1106} ; [ DW_TAG_inheritance ]
!1106 = metadata !{i32 786434, null, metadata !"ssdm_int<33 + 1024 * 0, true>", metadata !889, i32 35, i64 64, i64 32, i32 0, i32 0, null, metadata !1107, i32 0, null, metadata !1114} ; [ DW_TAG_class_type ]
!1107 = metadata !{metadata !1108, metadata !1110}
!1108 = metadata !{i32 786445, metadata !1106, metadata !"V", metadata !889, i32 35, i64 33, i64 32, i64 0, i32 0, metadata !1109} ; [ DW_TAG_member ]
!1109 = metadata !{i32 786468, null, metadata !"int33", null, i32 0, i64 33, i64 32, i64 0, i32 0, i32 5} ; [ DW_TAG_base_type ]
!1110 = metadata !{i32 786478, i32 0, metadata !1106, metadata !"ssdm_int", metadata !"ssdm_int", metadata !"", metadata !889, i32 35, metadata !1111, i1 false, i1 false, i32 0, i32 0, null, i32 256, i1 false, null, null, i32 0, metadata !87, i32 35} ; [ DW_TAG_subprogram ]
!1111 = metadata !{i32 786453, i32 0, metadata !"", i32 0, i32 0, i64 0, i64 0, i64 0, i32 0, null, metadata !1112, i32 0, i32 0} ; [ DW_TAG_subroutine_type ]
!1112 = metadata !{null, metadata !1113}
!1113 = metadata !{i32 786447, i32 0, metadata !"", i32 0, i32 0, i64 64, i64 64, i64 0, i32 64, metadata !1106} ; [ DW_TAG_pointer_type ]
!1114 = metadata !{metadata !1115, metadata !1116}
!1115 = metadata !{i32 786480, null, metadata !"_AP_N", metadata !56, i64 33, null, i32 0, i32 0} ; [ DW_TAG_template_value_parameter ]
!1116 = metadata !{i32 786480, null, metadata !"_AP_S", metadata !213, i64 1, null, i32 0, i32 0} ; [ DW_TAG_template_value_parameter ]
!1117 = metadata !{i32 786478, i32 0, metadata !1103, metadata !"ap_int_base", metadata !"ap_int_base", metadata !"", metadata !866, i32 1494, metadata !1118, i1 false, i1 false, i32 0, i32 0, null, i32 256, i1 false, null, null, i32 0, metadata !87, i32 1494} ; [ DW_TAG_subprogram ]
!1118 = metadata !{i32 786453, i32 0, metadata !"", i32 0, i32 0, i64 0, i64 0, i64 0, i32 0, null, metadata !1119, i32 0, i32 0} ; [ DW_TAG_subroutine_type ]
!1119 = metadata !{null, metadata !1120}
!1120 = metadata !{i32 786447, i32 0, metadata !"", i32 0, i32 0, i64 64, i64 64, i64 0, i32 64, metadata !1103} ; [ DW_TAG_pointer_type ]
!1121 = metadata !{i32 786478, i32 0, metadata !1103, metadata !"ap_int_base<33, true>", metadata !"ap_int_base<33, true>", metadata !"", metadata !866, i32 1506, metadata !1122, i1 false, i1 false, i32 0, i32 0, null, i32 256, i1 false, null, metadata !1126, i32 0, metadata !87, i32 1506} ; [ DW_TAG_subprogram ]
!1122 = metadata !{i32 786453, i32 0, metadata !"", i32 0, i32 0, i64 0, i64 0, i64 0, i32 0, null, metadata !1123, i32 0, i32 0} ; [ DW_TAG_subroutine_type ]
!1123 = metadata !{null, metadata !1120, metadata !1124}
!1124 = metadata !{i32 786448, null, null, null, i32 0, i64 0, i64 0, i64 0, i32 0, metadata !1125} ; [ DW_TAG_reference_type ]
!1125 = metadata !{i32 786470, null, metadata !"", null, i32 0, i64 0, i64 0, i64 0, i32 0, metadata !1103} ; [ DW_TAG_const_type ]
!1126 = metadata !{metadata !1127, metadata !1128}
!1127 = metadata !{i32 786480, null, metadata !"_AP_W2", metadata !56, i64 33, null, i32 0, i32 0} ; [ DW_TAG_template_value_parameter ]
!1128 = metadata !{i32 786480, null, metadata !"_AP_S2", metadata !213, i64 1, null, i32 0, i32 0} ; [ DW_TAG_template_value_parameter ]
!1129 = metadata !{i32 786478, i32 0, metadata !1103, metadata !"ap_int_base<33, true>", metadata !"ap_int_base<33, true>", metadata !"", metadata !866, i32 1509, metadata !1130, i1 false, i1 false, i32 0, i32 0, null, i32 256, i1 false, null, metadata !1126, i32 0, metadata !87, i32 1509} ; [ DW_TAG_subprogram ]
!1130 = metadata !{i32 786453, i32 0, metadata !"", i32 0, i32 0, i64 0, i64 0, i64 0, i32 0, null, metadata !1131, i32 0, i32 0} ; [ DW_TAG_subroutine_type ]
!1131 = metadata !{null, metadata !1120, metadata !1132}
!1132 = metadata !{i32 786448, null, null, null, i32 0, i64 0, i64 0, i64 0, i32 0, metadata !1133} ; [ DW_TAG_reference_type ]
!1133 = metadata !{i32 786470, null, metadata !"", null, i32 0, i64 0, i64 0, i64 0, i32 0, metadata !1134} ; [ DW_TAG_const_type ]
!1134 = metadata !{i32 786485, null, metadata !"", null, i32 0, i64 0, i64 0, i64 0, i32 0, metadata !1103} ; [ DW_TAG_volatile_type ]
!1135 = metadata !{i32 786478, i32 0, metadata !1103, metadata !"ap_int_base", metadata !"ap_int_base", metadata !"", metadata !866, i32 1516, metadata !1136, i1 false, i1 false, i32 0, i32 0, null, i32 384, i1 false, null, null, i32 0, metadata !87, i32 1516} ; [ DW_TAG_subprogram ]
!1136 = metadata !{i32 786453, i32 0, metadata !"", i32 0, i32 0, i64 0, i64 0, i64 0, i32 0, null, metadata !1137, i32 0, i32 0} ; [ DW_TAG_subroutine_type ]
!1137 = metadata !{null, metadata !1120, metadata !213}
!1138 = metadata !{i32 786478, i32 0, metadata !1103, metadata !"ap_int_base", metadata !"ap_int_base", metadata !"", metadata !866, i32 1517, metadata !1139, i1 false, i1 false, i32 0, i32 0, null, i32 384, i1 false, null, null, i32 0, metadata !87, i32 1517} ; [ DW_TAG_subprogram ]
!1139 = metadata !{i32 786453, i32 0, metadata !"", i32 0, i32 0, i64 0, i64 0, i64 0, i32 0, null, metadata !1140, i32 0, i32 0} ; [ DW_TAG_subroutine_type ]
!1140 = metadata !{null, metadata !1120, metadata !910}
!1141 = metadata !{i32 786478, i32 0, metadata !1103, metadata !"ap_int_base", metadata !"ap_int_base", metadata !"", metadata !866, i32 1518, metadata !1142, i1 false, i1 false, i32 0, i32 0, null, i32 384, i1 false, null, null, i32 0, metadata !87, i32 1518} ; [ DW_TAG_subprogram ]
!1142 = metadata !{i32 786453, i32 0, metadata !"", i32 0, i32 0, i64 0, i64 0, i64 0, i32 0, null, metadata !1143, i32 0, i32 0} ; [ DW_TAG_subroutine_type ]
!1143 = metadata !{null, metadata !1120, metadata !914}
!1144 = metadata !{i32 786478, i32 0, metadata !1103, metadata !"ap_int_base", metadata !"ap_int_base", metadata !"", metadata !866, i32 1519, metadata !1145, i1 false, i1 false, i32 0, i32 0, null, i32 384, i1 false, null, null, i32 0, metadata !87, i32 1519} ; [ DW_TAG_subprogram ]
!1145 = metadata !{i32 786453, i32 0, metadata !"", i32 0, i32 0, i64 0, i64 0, i64 0, i32 0, null, metadata !1146, i32 0, i32 0} ; [ DW_TAG_subroutine_type ]
!1146 = metadata !{null, metadata !1120, metadata !918}
!1147 = metadata !{i32 786478, i32 0, metadata !1103, metadata !"ap_int_base", metadata !"ap_int_base", metadata !"", metadata !866, i32 1520, metadata !1148, i1 false, i1 false, i32 0, i32 0, null, i32 384, i1 false, null, null, i32 0, metadata !87, i32 1520} ; [ DW_TAG_subprogram ]
!1148 = metadata !{i32 786453, i32 0, metadata !"", i32 0, i32 0, i64 0, i64 0, i64 0, i32 0, null, metadata !1149, i32 0, i32 0} ; [ DW_TAG_subroutine_type ]
!1149 = metadata !{null, metadata !1120, metadata !922}
!1150 = metadata !{i32 786478, i32 0, metadata !1103, metadata !"ap_int_base", metadata !"ap_int_base", metadata !"", metadata !866, i32 1521, metadata !1151, i1 false, i1 false, i32 0, i32 0, null, i32 384, i1 false, null, null, i32 0, metadata !87, i32 1521} ; [ DW_TAG_subprogram ]
!1151 = metadata !{i32 786453, i32 0, metadata !"", i32 0, i32 0, i64 0, i64 0, i64 0, i32 0, null, metadata !1152, i32 0, i32 0} ; [ DW_TAG_subroutine_type ]
!1152 = metadata !{null, metadata !1120, metadata !56}
!1153 = metadata !{i32 786478, i32 0, metadata !1103, metadata !"ap_int_base", metadata !"ap_int_base", metadata !"", metadata !866, i32 1522, metadata !1154, i1 false, i1 false, i32 0, i32 0, null, i32 384, i1 false, null, null, i32 0, metadata !87, i32 1522} ; [ DW_TAG_subprogram ]
!1154 = metadata !{i32 786453, i32 0, metadata !"", i32 0, i32 0, i64 0, i64 0, i64 0, i32 0, null, metadata !1155, i32 0, i32 0} ; [ DW_TAG_subroutine_type ]
!1155 = metadata !{null, metadata !1120, metadata !929}
